 cemon.Toradex_CE800

 Timestamp is 5848f396 (Wed Dec 07 23:45:58 2016)

 Preferred load address is 00010000

 Start         Length     Name                   Class
 0001:00000000 0002b2d0H .text                   CODE
 0002:00000000 00000104H .CRT$XCA                DATA
 0002:00000104 00000104H .CRT$XCZ                DATA
 0002:00000208 00000104H .CRT$XIA                DATA
 0002:0000030c 0000010eH .CRT$XIC                DATA
 0002:0000041c 00000104H .CRT$XID                DATA
 0002:00000520 00000104H .CRT$XIZ                DATA
 0002:00000624 00000104H .CRT$XPA                DATA
 0002:00000728 00000104H .CRT$XPX                DATA
 0002:0000082c 00000104H .CRT$XPXA               DATA
 0002:00000930 00000104H .CRT$XPZ                DATA
 0002:00000a34 00000104H .CRT$XTA                DATA
 0002:00000b38 00000104H .CRT$XTZ                DATA
 0002:00000c40 00009695H .rdata                  DATA
 0002:0000a2d8 0000016eH .rdata$debug            DATA
 0002:0000a448 00000104H .rtc$IAA                DATA
 0002:0000a54c 00000104H .rtc$IZZ                DATA
 0002:0000a650 00000104H .rtc$TAA                DATA
 0002:0000a754 00000104H .rtc$TZZ                DATA
 0002:0000a858 00001a15H .xdata                  DATA
 0002:0000c26d 00000000H .edata                  DATA
 0003:00000000 0000186bH .data                   DATA
 0003:00001880 0000aeb8H .bss                    DATA
 0004:00000000 000017d8H .pdata                  DATA
 0005:00000000 0000003cH .idata$2                DATA
 0005:0000003c 00000014H .idata$3                DATA
 0005:00000050 000002d0H .idata$4                DATA
 0005:00000320 000002d0H .idata$5                DATA
 0005:000005f0 0000030bH .idata$6                DATA

  Address         Publics by Value              Rva+Base       Lib:Object

 0000:00000000       ___safe_se_handler_table   00000000     <absolute>
 0000:00000000       ___safe_se_handler_count   00000000     <absolute>
 0000:00000000       _load_config_used          00010000     <linker-defined>
 0001:00000964       WinTimeToUnixTime          00011964 f   util.obj
 0001:000009bc       UnixTimeToFileTime         000119bc f   util.obj
 0001:000009f4       strstri                    000119f4 f   util.obj
 0001:00000adc       get_num_bits               00011adc f   util.obj
 0001:00000afc       atof_                      00011afc f   util.obj
 0001:00000c88       mytime                     00011c88 f   util.obj
 0001:00000cb0       localTime                  00011cb0 f   util.obj
 0001:00000d10       myswprintf                 00011d10 f   util.obj
 0001:00000d30       logg_begin                 00011d30 f   util.obj
 0001:00000d6c       logg_end                   00011d6c f   util.obj
 0001:00000d94       logt                       00011d94 f   util.obj
 0001:00000e14       wcscpy2                    00011e14 f   util.obj
 0001:00000e38       wcscpy3                    00011e38 f   util.obj
 0001:00000e5c       reallocf                   00011e5c f   util.obj
 0001:00000e84       addFileTime                00011e84 f   util.obj
 0001:00000ea4       subFileTime                00011ea4 f   util.obj
 0001:00000ec4       splitString                00011ec4 f   util.obj
 0001:0000100c       hexdec                     0001200c f   util.obj
 0001:0000107c       logg                       0001207c f   util.obj
 0001:0000110c       makeTimeString             0001210c f   util.obj
 0001:00001148       strtime                    00012148 f   util.obj
 0001:000011b0       full_path                  000121b0 f   util.obj
 0001:000012c0       GetNumClients              000122c0 f   comm.obj
 0001:000012e0       winsock_end                000122e0 f   comm.obj
 0001:000012e4       winsock_init               000122e4 f   comm.obj
 0001:00001328       socket_write               00012328 f   comm.obj
 0001:0000143c       socket_read                0001243c f   comm.obj
 0001:000014a8       socket_server_init         000124a8 f   comm.obj
 0001:0000160c       socket_find_client         0001260c f   comm.obj
 0001:00001668       socket_set_client_state    00012668 f   comm.obj
 0001:000016b0       socket_unset_client_state  000126b0 f   comm.obj
 0001:000016fc       socket_unset_clients_state 000126fc f   comm.obj
 0001:00001730       socket_is_any_client_state 00012730 f   comm.obj
 0001:00001780       socket_close_client        00012780 f   comm.obj
 0001:00001868       socket_client_init         00012868 f   comm.obj
 0001:000018a8       socket_client_connect2     000128a8 f   comm.obj
 0001:0000194c       socket_set_broadcast       0001294c f   comm.obj
 0001:0000199c       socket_nonblocking         0001299c f   comm.obj
 0001:000019e4       socket_blocking            000129e4 f   comm.obj
 0001:00001a2c       socket_ready               00012a2c f   comm.obj
 0001:00001b1c       socket_accept              00012b1c f   comm.obj
 0001:00001c78       socket_server_end          00012c78 f   comm.obj
 0001:00001df8       socket_write_client        00012df8 f   comm.obj
 0001:00001e20       socket_write_clients       00012e20 f   comm.obj
 0001:00001ec0       socket_read_clienti        00012ec0 f   comm.obj
 0001:00002010       socket_remove_overdue_clients 00013010 f   comm.obj
 0001:0000216c       socket_client_connect      0001316c f   comm.obj
 0001:0000219c       socket_read_client         0001319c f   comm.obj
 0001:000021c0       dieRtm                     000131c0 f   cpumon.obj
 0001:00002200       __GetUserKData             00013200 f   cpumon.obj
 0001:000022b8       processesIndex             000132b8 f   cpumon.obj
 0001:000022e8       saveSettings               000132e8 f   cpumon.obj
 0001:000023b0       readSettings               000133b0 f   cpumon.obj
 0001:00002694       readThreadsFile            00013694 f   cpumon.obj
 0001:000027f4       alloc_parray               000137f4 f   cpumon.obj
 0001:00002850       alloc_tarray               00013850 f   cpumon.obj
 0001:000028ac       get_ps_path                000138ac f   cpumon.obj
 0001:00002990       KillProcess                00013990 f   cpumon.obj
 0001:00002b70       debug_ps_ack               00013b70 f   cpumon.obj
 0001:00002b9c       handle_thread              00013b9c f   cpumon.obj
 0001:00002c60       set_thread_priority        00013c60 f   cpumon.obj
 0001:00002cd4       get_thread_priority        00013cd4 f   cpumon.obj
 0001:00002d2c       start                      00013d2c f   cpumon.obj
 0001:00002e3c       createToolHelpSnapshot     00013e3c f   cpumon.obj
 0001:00002e80       deleteToolHelpSnapshot     00013e80 f   cpumon.obj
 0001:00003040       GetCurrentThreadId         00014040 f i cpumon.obj
 0001:00003044       get_thread_names           00014044 f   cpumon.obj
 0001:00003090       increasePsList             00014090 f   cpumon.obj
 0001:00003144       increaseThList             00014144 f   cpumon.obj
 0001:000031f8       handle_process             000141f8 f   cpumon.obj
 0001:00003520       getThStats                 00014520 f   cpumon.obj
 0001:000036f4       getPsStats                 000146f4 f   cpumon.obj
 0001:00003840       expandList                 00014840 f   cpumon.obj
 0001:000038a0       process_client_request     000148a0 f   cpumon.obj
 0001:00003c10       service_clients            00014c10 f   cpumon.obj
 0001:00003c9c       WinMain                    00014c9c f   cpumon.obj
 0001:000046c0       SetEvent                   000156c0 f i debugger.obj
 0001:000046c8       set_kdump_dir              000156c8 f   debugger.obj
 0001:00004734       get_kdump_dir              00015734 f   debugger.obj
 0001:00004808       delete_cinfo               00015808 f   debugger.obj
 0001:00004838       delete_dinfo               00015838 f   debugger.obj
 0001:0000485c       debug_ack                  0001585c f   debugger.obj
 0001:000048b8       create_dbgr_handles        000158b8 f   debugger.obj
 0001:00004978       close_dbgr_handles         00015978 f   debugger.obj
 0001:000049c0       process_frames             000159c0 f   debugger.obj
 0001:000049f8       handle_exception           000159f8 f   debugger.obj
 0001:00004b54       debug_crashed              00015b54 f   debugger.obj
 0001:00004bd0       debug_done                 00015bd0 f   debugger.obj
 0001:00004ccc       get_callstack              00015ccc f   debugger.obj
 0001:00004d2c       debug_check                00015d2c f   debugger.obj
 0001:00005060       continue_processing_debug_events 00016060 f   debugger.obj
 0001:00005154       continue_debug             00016154 f   debugger.obj
 0001:00005274       debuger_proc               00016274 f   debugger.obj
 0001:0000541c       debug_process              0001641c f   debugger.obj
 0001:0000566c       DiscoveryServerInit        0001666c f   DiscoveryServer.obj
 0001:0000575c       DiscoveryServerServe       0001675c f   DiscoveryServer.obj
 0001:00005960       GetLocalTime               00016960 f   coredll:COREDLL.dll
 0001:0000596c       SystemTimeToFileTime       0001696c f   coredll:COREDLL.dll
 0001:00005978       StringCbPrintfW            00016978 f   coredll:COREDLL.dll
 0001:00005984       OutputDebugStringW         00016984 f   coredll:COREDLL.dll
 0001:00005990       GetModuleFileNameW         00016990 f   coredll:COREDLL.dll
 0001:0000599c       GetLastError               0001699c f   coredll:COREDLL.dll
 0001:000059a8       OpenProcess                000169a8 f   coredll:COREDLL.dll
 0001:000059b4       TerminateProcess           000169b4 f   coredll:COREDLL.dll
 0001:000059c0       CloseHandle                000169c0 f   coredll:COREDLL.dll
 0001:000059cc       ResumeThread               000169cc f   coredll:COREDLL.dll
 0001:000059d8       SuspendThread              000169d8 f   coredll:COREDLL.dll
 0001:000059e4       TerminateThread            000169e4 f   coredll:COREDLL.dll
 0001:000059f0       CeSetThreadPriority        000169f0 f   coredll:COREDLL.dll
 0001:000059fc       CeGetThreadPriority        000169fc f   coredll:COREDLL.dll
 0001:00005a08       QueryPerformanceFrequency  00016a08 f   coredll:COREDLL.dll
 0001:00005a14       CreateProcessW             00016a14 f   coredll:COREDLL.dll
 0001:00005a20       GetThreadTimes             00016a20 f   coredll:COREDLL.dll
 0001:00005a2c       GetTickCount               00016a2c f   coredll:COREDLL.dll
 0001:00005a38       SetSystemPowerState        00016a38 f   coredll:COREDLL.dll
 0001:00005a44       LoadLibraryW               00016a44 f   coredll:COREDLL.dll
 0001:00005a50       GetProcAddressW            00016a50 f   coredll:COREDLL.dll
 0001:00005a5c       GetSystemInfo              00016a5c f   coredll:COREDLL.dll
 0001:00005a68       Sleep                      00016a68 f   coredll:COREDLL.dll
 0001:00005a74       FreeLibrary                00016a74 f   coredll:COREDLL.dll
 0001:00005a80       EventModify                00016a80 f   coredll:COREDLL.dll
 0001:00005a8c       RegOpenKeyExW              00016a8c f   coredll:COREDLL.dll
 0001:00005a98       RegQueryValueExW           00016a98 f   coredll:COREDLL.dll
 0001:00005aa4       RegCloseKey                00016aa4 f   coredll:COREDLL.dll
 0001:00005ab0       DeleteCriticalSection      00016ab0 f   coredll:COREDLL.dll
 0001:00005abc       CreateEventW               00016abc f   coredll:COREDLL.dll
 0001:00005ac8       EnterCriticalSection       00016ac8 f   coredll:COREDLL.dll
 0001:00005ad4       LeaveCriticalSection       00016ad4 f   coredll:COREDLL.dll
 0001:00005ae0       WaitForMultipleObjects     00016ae0 f   coredll:COREDLL.dll
 0001:00005aec       SetLastError               00016aec f   coredll:COREDLL.dll
 0001:00005af8       DebugActiveProcess         00016af8 f   coredll:COREDLL.dll
 0001:00005b04       InitializeCriticalSection  00016b04 f   coredll:COREDLL.dll
 0001:00005b10       CreateThread               00016b10 f   coredll:COREDLL.dll
 0001:00005b1c       _vswprintf_helper          00016b1c f   LIBCMT:vswprnc.obj
 0001:00005be4       _vswprintf_p_l             00016be4 f   LIBCMT:vswprnc.obj
 0001:00005c10       _vswprintf_p               00016c10 f   LIBCMT:vswprnc.obj
 0001:00005c3c       _vsnwprintf_s_l            00016c3c f   LIBCMT:vswprnc.obj
 0001:00005d10       _vswprintf_s_l             00016d10 f   LIBCMT:vswprnc.obj
 0001:00005d64       _vswprintf_c_l             00016d64 f   LIBCMT:vswprnc.obj
 0001:00005d90       _vswprintf_c               00016d90 f   LIBCMT:vswprnc.obj
 0001:00005dbc       _vsnwprintf_s              00016dbc f   LIBCMT:vswprnc.obj
 0001:00005dd4       vswprintf_s                00016dd4 f   LIBCMT:vswprnc.obj
 0001:00005de8       _invoke_watson_if_error    00016de8 f i LIBCMT:loctim64.obj
 0001:00005e10       _localtime64_s             00016e10 f   LIBCMT:loctim64.obj
 0001:0000607c       _localtime64               0001707c f   LIBCMT:loctim64.obj
 0001:000060a0       _time64                    000170a0 f   LIBCMT:time64.obj
 0001:000060f4       __i64tod                   000170f4 f   LIBCMT:i64tofp.obj
 0001:00006190       __u64tod                   00017190 f   LIBCMT:i64tofp.obj
 0001:0000621c       __i64tos                   0001721c f   LIBCMT:i64tofp.obj
 0001:000062b4       __u64tos                   000172b4 f   LIBCMT:i64tofp.obj
 0001:0000633c       __i64tofp_exception_helper 0001733c f   LIBCMT:i64tofp.obj
 0001:00006368       __dtoi64                   00017368 f   LIBCMT:fptoi64.obj
 0001:00006464       __dtou64                   00017464 f   LIBCMT:fptoi64.obj
 0001:00006550       __stoi64                   00017550 f   LIBCMT:fptoi64.obj
 0001:00006648       __stou64                   00017648 f   LIBCMT:fptoi64.obj
 0001:00006730       __fptoi64_exception_helper 00017730 f   LIBCMT:fptoi64.obj
 0001:0000675c       _cfltcvt_init              0001775c f   LIBCMT:fpinit.obj
 0001:000067b0       __setfflag                 000177b0 f   LIBCMT:fpinit.obj
 0001:000067c0       _fpmath                    000177c0 f   LIBCMT:fpinit.obj
 0001:000067c4       ??0_LocaleUpdate@@QAA@PAUlocaleinfo_struct@@@Z 000177c4 f i LIBCMT:tolower.obj
 0001:000067f4       ??1_LocaleUpdate@@QAA@XZ   000177f4 f i LIBCMT:tolower.obj
 0001:00006814       ?GetLocaleT@_LocaleUpdate@@QAAPAUlocaleinfo_struct@@XZ 00017814 f i LIBCMT:tolower.obj
 0001:00006818       _tolower                   00017818 f   LIBCMT:tolower.obj
 0001:0000681c       _tolower_l                 0001781c f   LIBCMT:tolower.obj
 0001:00006914       tolower                    00017914 f   LIBCMT:tolower.obj
 0001:0000695c       pow                        0001795c f   LIBCMT:pow.obj
 0001:00006f28       _fsopen                    00017f28 f   LIBCMT:fopen.obj
 0001:00006fb8       fopen_s                    00017fb8 f   LIBCMT:fopen.obj
 0001:00006ff4       fopen                      00017ff4 f   LIBCMT:fopen.obj
 0001:00006ffc       _fclose_nolock             00017ffc f   LIBCMT:fclose.obj
 0001:0000705c       fclose                     0001805c f   LIBCMT:fclose.obj
 0001:000070b8       strlen                     000180b8 f   LIBCMT:strlen.obj
 0001:000070c8       _vsprintf_l                000180c8 f   LIBCMT:vsprintf.obj
 0001:00007140       _vscprintf_helper          00018140 f   LIBCMT:vsprintf.obj
 0001:00007194       vsprintf                   00018194 f   LIBCMT:vsprintf.obj
 0001:0000719c       _vscprintf_p_l             0001819c f   LIBCMT:vsprintf.obj
 0001:000071ac       _vscprintf_p               000181ac f   LIBCMT:vsprintf.obj
 0001:000071bc       _vscprintf_l               000181bc f   LIBCMT:vsprintf.obj
 0001:000071cc       _vscprintf                 000181cc f   LIBCMT:vsprintf.obj
 0001:000071dc       printf                     000181dc f   LIBCMT:printf.obj
 0001:0000725c       _printf_l                  0001825c f   LIBCMT:printf.obj
 0001:00007274       _printf_s_l                00018274 f   LIBCMT:printf.obj
 0001:0000728c       printf_s                   0001828c f   LIBCMT:printf.obj
 0001:000072a8       _printf_p_l                000182a8 f   LIBCMT:printf.obj
 0001:000072c0       _printf_p                  000182c0 f   LIBCMT:printf.obj
 0001:000072dc       _set_printf_count_output   000182dc f   LIBCMT:printf.obj
 0001:00007314       _get_printf_count_output   00018314 f   LIBCMT:printf.obj
 0001:00007334       realloc                    00018334 f   LIBCMT:realloc.obj
 0001:000073cc       free                       000183cc f   LIBCMT:free.obj
 0001:000073fc       __memcpy_forward           000183fc     LIBCMT:memcpy.obj
 0001:000073fc       memcpy                     000183fc f   LIBCMT:memcpy.obj
 0001:000074fc       __memcpy_large             000184fc f   LIBCMT:memcpy.obj
 0001:000075c0       memmove                    000185c0 f   LIBCMT:memcpy.obj
 0001:000075cc       __memmove_reverse          000185cc     LIBCMT:memcpy.obj
 0001:000076b8       __memmove_large            000186b8 f   LIBCMT:memcpy.obj
 0001:0000779c       _memcpy_strict_align       0001879c f   LIBCMT:memcpy.obj
 0001:000078fc       _heap_alloc                000188fc f i LIBCMT:malloc.obj
 0001:00007934       malloc                     00018934 f   LIBCMT:malloc.obj
 0001:00007bac       _strtoul_l                 00018bac f   LIBCMT:strtol.obj
 0001:00007bcc       strtoul                    00018bcc f   LIBCMT:strtol.obj
 0001:00007c00       _strtol_l                  00018c00 f   LIBCMT:strtol.obj
 0001:00007c20       strtol                     00018c20 f   LIBCMT:strtol.obj
 0001:00007c54       wprintf                    00018c54 f   LIBCMT:wprintf.obj
 0001:00007cd4       _wprintf_l                 00018cd4 f   LIBCMT:wprintf.obj
 0001:00007cec       _wprintf_s_l               00018cec f   LIBCMT:wprintf.obj
 0001:00007d04       wprintf_s                  00018d04 f   LIBCMT:wprintf.obj
 0001:00007d20       _wprintf_p_l               00018d20 f   LIBCMT:wprintf.obj
 0001:00007d38       _wprintf_p                 00018d38 f   LIBCMT:wprintf.obj
 0001:00007d54       fwprintf                   00018d54 f   LIBCMT:fwprintf.obj
 0001:00007dbc       _fwprintf_l                00018dbc f   LIBCMT:fwprintf.obj
 0001:00007dd4       _fwprintf_s_l              00018dd4 f   LIBCMT:fwprintf.obj
 0001:00007dec       fwprintf_s                 00018dec f   LIBCMT:fwprintf.obj
 0001:00007e08       _fwprintf_p_l              00018e08 f   LIBCMT:fwprintf.obj
 0001:00007e20       _fwprintf_p                00018e20 f   LIBCMT:fwprintf.obj
 0001:00007e3c       _flush                     00018e3c f   LIBCMT:fflush.obj
 0001:00007e98       _fflush_nolock             00018e98 f   LIBCMT:fflush.obj
 0001:00007fa8       _flushall                  00018fa8 f   LIBCMT:fflush.obj
 0001:00007fb0       fflush                     00018fb0 f   LIBCMT:fflush.obj
 0001:00007ff0       _Gettnames                 00018ff0 f   LIBCMT:strftime.obj
 0001:00007ff8       _Strftime_l                00018ff8 f   LIBCMT:strftime.obj
 0001:00008124       _Getmonths_l               00019124 f   LIBCMT:strftime.obj
 0001:00008210       _Getdays_l                 00019210 f   LIBCMT:strftime.obj
 0001:000082fc       _Strftime                  000192fc f   LIBCMT:strftime.obj
 0001:00008314       strftime                   00019314 f   LIBCMT:strftime.obj
 0001:0000832c       _strftime_l                0001932c f   LIBCMT:strftime.obj
 0001:00008344       _Getmonths                 00019344 f   LIBCMT:strftime.obj
 0001:0000834c       _Getdays                   0001934c f   LIBCMT:strftime.obj
 0001:00008354       memset                     00019354 f   LIBCMT:memset.obj
 0001:000083c0       wcsrchr                    000193c0 f   LIBCMT:wcsrchr.obj
 0001:000083e0       __rt_udiv                  000193e0 f   LIBCMT:divide.obj
 0001:00008548       __rt_sdiv                  00019548 f   LIBCMT:divide.obj
 0001:000086cc       __rt_udiv64                000196cc f   LIBCMT:divide.obj
 0001:0000876c       __rt_sdiv64                0001976c f   LIBCMT:divide.obj
 0001:00008838       fprintf                    00019838 f   LIBCMT:fprintf.obj
 0001:0000892c       _fprintf_l                 0001992c f   LIBCMT:fprintf.obj
 0001:00008944       _fprintf_s_l               00019944 f   LIBCMT:fprintf.obj
 0001:0000895c       fprintf_s                  0001995c f   LIBCMT:fprintf.obj
 0001:00008978       _fprintf_p_l               00019978 f   LIBCMT:fprintf.obj
 0001:00008990       _fprintf_p                 00019990 f   LIBCMT:fprintf.obj
 0001:000089ac       strcmp                     000199ac f   LIBCMT:strcmp.obj
 0001:000089e0       strcat                     000199e0 f   LIBCMT:strcat.obj
 0001:00008a04       strcpy                     00019a04 f   LIBCMT:strcat.obj
 0001:00008a18       __chkstk                   00019a18 f   LIBCMT:chkstk.obj
 0001:00008a18       _alloca_probe              00019a18     LIBCMT:chkstk.obj
 0001:00008a1c       feof                       00019a1c f   LIBCMT:feoferr.obj
 0001:00008a40       ferror                     00019a40 f   LIBCMT:feoferr.obj
 0001:00008a64       fgets                      00019a64 f   LIBCMT:fgets.obj
 0001:00008bf4       _sscanf_s_l                00019bf4 f   LIBCMT:sscanf.obj
 0001:00008c20       sscanf_s                   00019c20 f   LIBCMT:sscanf.obj
 0001:00008c48       _sscanf_l                  00019c48 f   LIBCMT:sscanf.obj
 0001:00008c74       sscanf                     00019c74 f   LIBCMT:sscanf.obj
 0001:00008c9c       sprintf                    00019c9c f   LIBCMT:sprintf.obj
 0001:00008d18       _sprintf_l                 00019d18 f   LIBCMT:sprintf.obj
 0001:00008d30       sprintf_s                  00019d30 f   LIBCMT:sprintf.obj
 0001:00008d50       _sprintf_s_l               00019d50 f   LIBCMT:sprintf.obj
 0001:00008d6c       _snprintf_s                00019d6c f   LIBCMT:sprintf.obj
 0001:00008d8c       _snprintf_s_l              00019d8c f   LIBCMT:sprintf.obj
 0001:00008dac       _sprintf_p                 00019dac f   LIBCMT:sprintf.obj
 0001:00008dcc       _sprintf_p_l               00019dcc f   LIBCMT:sprintf.obj
 0001:00008de8       _scprintf                  00019de8 f   LIBCMT:sprintf.obj
 0001:00008e00       _scprintf_p                00019e00 f   LIBCMT:sprintf.obj
 0001:00008e18       _scprintf_l                00019e18 f   LIBCMT:sprintf.obj
 0001:00008e30       _scprintf_p_l              00019e30 f   LIBCMT:sprintf.obj
 0001:00008e48       _wtol                      00019e48 f   LIBCMT:wtox.obj
 0001:00008e50       _wtol_l                    00019e50 f   LIBCMT:wtox.obj
 0001:00008e5c       _wtoi64                    00019e5c f   LIBCMT:wtox.obj
 0001:00008e64       _wtoi64_l                  00019e64 f   LIBCMT:wtox.obj
 0001:00008e70       _wtoi                      00019e70 f   LIBCMT:wtox.obj
 0001:00008e78       _wtoi_l                    00019e78 f   LIBCMT:wtox.obj
 0001:00008e84       srand                      00019e84 f   LIBCMT:rand.obj
 0001:00008e9c       rand                       00019e9c f   LIBCMT:rand.obj
 0001:00008ec4       _fwrite_nolock             00019ec4 f   LIBCMT:fwrite.obj
 0001:00008ff4       fwrite                     00019ff4 f   LIBCMT:fwrite.obj
 0001:00009050       memcmp                     0001a050 f   LIBCMT:memcmp.obj
 0001:000091e0       WinMainCRTStartup          0001a1e0 f   LIBCMT:wincrt0.obj
 0001:00009204       _get_errno_from_oserr      0001a204 f   LIBCMT:dosmap.obj
 0001:0000924c       _errno                     0001a24c f   LIBCMT:dosmap.obj
 0001:00009264       __doserrno                 0001a264 f   LIBCMT:dosmap.obj
 0001:00009280       _get_errno                 0001a280 f   LIBCMT:dosmap.obj
 0001:000092ac       _set_errno                 0001a2ac f   LIBCMT:dosmap.obj
 0001:000092cc       _get_doserrno              0001a2cc f   LIBCMT:dosmap.obj
 0001:000092f0       _set_doserrno              0001a2f0 f   LIBCMT:dosmap.obj
 0001:00009308       _dosmaperr                 0001a308 f   LIBCMT:dosmap.obj
 0001:00009334       _initp_misc_invarg         0001a334 f   LIBCMT:invarg.obj
 0001:00009340       _invoke_watson             0001a340 f   LIBCMT:invarg.obj
 0001:00009344       _set_invalid_parameter_handler 0001a344 f   LIBCMT:invarg.obj
 0001:00009354       _get_invalid_parameter_handler 0001a354 f   LIBCMT:invarg.obj
 0001:00009360       _invalid_parameter         0001a360 f   LIBCMT:invarg.obj
 0001:0000937c       ?_invoke_watson@@YAXPBG00II@Z 0001a37c f   LIBCMT:invarg.obj
 0001:00009380       ?_invalid_parameter@@YAXPBG00II@Z 0001a380 f   LIBCMT:invarg.obj
 0001:0000939c       _invalid_parameter_noinfo_noreturn 0001a39c f   LIBCMT:invarg.obj
 0001:000093bc       _invalid_parameter_noinfo  0001a3bc f   LIBCMT:invarg.obj
 0001:000093dc       _flsbuf                    0001a3dc f   LIBCMT:_flsbuf.obj
 0001:00009518       _validate_param_reuseW     0001a518 f   LIBCMT:woutputp.obj
 0001:00009668       get_int_arg                0001a668 f i LIBCMT:woutputp.obj
 0001:0000967c       get_int64_arg              0001a67c f i LIBCMT:woutputp.obj
 0001:00009730       _woutput_p_l               0001a730 f   LIBCMT:woutputp.obj
 0001:0000a5a8       _woutput_s_l               0001b5a8 f   LIBCMT:woutputs.obj
 0001:0000af0c       _woutput_l                 0001bf0c f   LIBCMT:woutput.obj
 0001:0000b770       _set_daylight              0001c770 f i LIBCMT:tzset.obj
 0001:0000b784       _set_dstbias               0001c784 f i LIBCMT:tzset.obj
 0001:0000b798       _set_timezone              0001c798 f i LIBCMT:tzset.obj
 0001:0000bdec       _tzset                     0001cdec f   LIBCMT:tzset.obj
 0001:0000be14       __tzset                    0001ce14 f   LIBCMT:tzset.obj
 0001:0000be50       _isindst                   0001ce50 f   LIBCMT:tzset.obj
 0001:0000be80       _get_daylight              0001ce80 f   LIBCMT:timeset.obj
 0001:0000bea8       _get_dstbias               0001cea8 f   LIBCMT:timeset.obj
 0001:0000bed0       _get_timezone              0001ced0 f   LIBCMT:timeset.obj
 0001:0000bef8       _get_tzname                0001cef8 f   LIBCMT:timeset.obj
 0001:0000bf60       __daylight                 0001cf60 f   LIBCMT:timeset.obj
 0001:0000bf68       __dstbias                  0001cf68 f   LIBCMT:timeset.obj
 0001:0000bf70       __timezone                 0001cf70 f   LIBCMT:timeset.obj
 0001:0000bf78       __tzname                   0001cf78 f   LIBCMT:timeset.obj
 0001:0000bf80       _gmtime64_s                0001cf80 f   LIBCMT:gmtime64.obj
 0001:0000c1b8       _gmtime64                  0001d1b8 f   LIBCMT:gmtime64.obj
 0001:0000c1dc       _gmtime32_s                0001d1dc f   LIBCMT:gmtime.obj
 0001:0000c334       __getgmtimebuf             0001d334 f   LIBCMT:gmtime.obj
 0001:0000c368       _gmtime32                  0001d368 f   LIBCMT:gmtime.obj
 0001:0000c38c       __fphelper_raise_exception 0001d38c f   LIBCMT:helpexcept.obj
 0001:0000c5d0       __helper_divide_by_0       0001d5d0 f   LIBCMT:helpexcept.obj
 0001:0000c5e0       _initp_misc_cfltcvt_tab    0001d5e0 f   LIBCMT:cmiscdat.obj
 0001:0000c5f0       ?strrchr@@YAPADPADH@Z      0001d5f0 f i LIBCMT:cvt.obj
 0001:0000c5f4       _positive                  0001d5f4 f   LIBCMT:cvt.obj
 0001:0000c60c       _fassign_l                 0001d60c f   LIBCMT:cvt.obj
 0001:0000c660       _cropzeros_l               0001d660 f   LIBCMT:cvt.obj
 0001:0000c70c       _forcdecpt_l               0001d70c f   LIBCMT:cvt.obj
 0001:0000c7a0       _fassign                   0001d7a0 f   LIBCMT:cvt.obj
 0001:0000ca7c       _cropzeros                 0001da7c f   LIBCMT:cvt.obj
 0001:0000ca84       _forcdecpt                 0001da84 f   LIBCMT:cvt.obj
 0001:0000ca8c       _cftof_l                   0001da8c f   LIBCMT:cvt.obj
 0001:0000cb24       _cftog_l                   0001db24 f   LIBCMT:cvt.obj
 0001:0000cc00       _cftoe_l                   0001dc00 f   LIBCMT:cvt.obj
 0001:0000ccb0       _cftof                     0001dcb0 f   LIBCMT:cvt.obj
 0001:0000ccc4       _cftog                     0001dcc4 f   LIBCMT:cvt.obj
 0001:0000ccdc       _cftoe                     0001dcdc f   LIBCMT:cvt.obj
 0001:0000ccf4       _cftoa_l                   0001dcf4 f   LIBCMT:cvt.obj
 0001:0000d040       _cfltcvt_l                 0001e040 f   LIBCMT:cvt.obj
 0001:0000d09c       _cftoa                     0001e09c f   LIBCMT:cvt.obj
 0001:0000d0b4       _cfltcvt                   0001e0b4 f   LIBCMT:cvt.obj
 0001:0000d0d4       __addlocaleref             0001e0d4 f   LIBCMT:localref.obj
 0001:0000d140       __removelocaleref          0001e140 f   LIBCMT:localref.obj
 0001:0000d1b0       __freetlocinfo             0001e1b0 f   LIBCMT:localref.obj
 0001:0000d2ac       __get_locinfo_addref       0001e2ac f   LIBCMT:localref.obj
 0001:0000d2e0       __locinfo_release          0001e2e0 f   LIBCMT:localref.obj
 0001:0000d328       _updatetlocinfoEx_nolock   0001e328 f   LIBCMT:localref.obj
 0001:0000d55c       __get_mbcinfo_addref       0001e55c f   LIBCMT:mbctype.obj
 0001:0000d590       __mbcinfo_release          0001e590 f   LIBCMT:mbctype.obj
 0001:0000d5d4       _getmbcp                   0001e5d4 f   LIBCMT:mbctype.obj
 0001:0000d68c       _setmbcp_nolock            0001e68c f   LIBCMT:mbctype.obj
 0001:0000d824       _setmbcp                   0001e824 f   LIBCMT:mbctype.obj
 0001:0000d974       __initmbctable             0001e974 f   LIBCMT:mbctype.obj
 0001:0000d998       _isctype_l                 0001e998 f   LIBCMT:isctype.obj
 0001:0000da64       _isctype                   0001ea64 f   LIBCMT:isctype.obj
 0001:0000da88       _iswalpha_l                0001ea88 f i LIBCMT:_wctype.obj
 0001:0000da90       iswalpha                   0001ea90 f i LIBCMT:_wctype.obj
 0001:0000da98       _iswupper_l                0001ea98 f i LIBCMT:_wctype.obj
 0001:0000daa0       iswupper                   0001eaa0 f i LIBCMT:_wctype.obj
 0001:0000daa8       _iswlower_l                0001eaa8 f i LIBCMT:_wctype.obj
 0001:0000dab0       iswlower                   0001eab0 f i LIBCMT:_wctype.obj
 0001:0000dab8       _iswdigit_l                0001eab8 f i LIBCMT:_wctype.obj
 0001:0000dac0       iswdigit                   0001eac0 f i LIBCMT:_wctype.obj
 0001:0000dac8       _iswxdigit_l               0001eac8 f i LIBCMT:_wctype.obj
 0001:0000dad0       iswxdigit                  0001ead0 f i LIBCMT:_wctype.obj
 0001:0000dad8       _iswspace_l                0001ead8 f i LIBCMT:_wctype.obj
 0001:0000dae0       iswspace                   0001eae0 f i LIBCMT:_wctype.obj
 0001:0000dae8       _iswpunct_l                0001eae8 f i LIBCMT:_wctype.obj
 0001:0000daf0       iswpunct                   0001eaf0 f i LIBCMT:_wctype.obj
 0001:0000daf8       _iswalnum_l                0001eaf8 f i LIBCMT:_wctype.obj
 0001:0000db00       iswalnum                   0001eb00 f i LIBCMT:_wctype.obj
 0001:0000db08       _iswprint_l                0001eb08 f i LIBCMT:_wctype.obj
 0001:0000db10       iswprint                   0001eb10 f i LIBCMT:_wctype.obj
 0001:0000db18       _iswgraph_l                0001eb18 f i LIBCMT:_wctype.obj
 0001:0000db20       iswgraph                   0001eb20 f i LIBCMT:_wctype.obj
 0001:0000db28       _iswcntrl_l                0001eb28 f i LIBCMT:_wctype.obj
 0001:0000db30       iswcntrl                   0001eb30 f i LIBCMT:_wctype.obj
 0001:0000db38       iswascii                   0001eb38 f i LIBCMT:_wctype.obj
 0001:0000db44       _iswcsym_l                 0001eb44 f i LIBCMT:_wctype.obj
 0001:0000db68       __iswcsym                  0001eb68 f i LIBCMT:_wctype.obj
 0001:0000db8c       _iswcsymf_l                0001eb8c f i LIBCMT:_wctype.obj
 0001:0000dbb0       __iswcsymf                 0001ebb0 f i LIBCMT:_wctype.obj
 0001:0000dbd4       _isleadbyte_l              0001ebd4 f i LIBCMT:_wctype.obj
 0001:0000dc28       isleadbyte                 0001ec28 f i LIBCMT:_wctype.obj
 0001:0000dc70       _MarkAllocaS               0001ec70 f i LIBCMT:a_map.obj
 0001:0000dc78       _freea                     0001ec78 f i LIBCMT:a_map.obj
 0001:0000deb0       __crtLCMapStringA          0001eeb0 f   LIBCMT:a_map.obj
 0001:0000df20       ___setlc_active_func       0001ef20 f   LIBCMT:wsetloca.obj
 0001:0000df2c       ___unguarded_readlc_active_add_func 0001ef2c f   LIBCMT:wsetloca.obj
 0001:0000df5c       _locterm                   0001ef5c f   LIBCMT:wsetloca.obj
 0001:0000dfc8       _free_locale               0001efc8 f   LIBCMT:wsetloca.obj
 0001:0000e04c       _get_current_locale        0001f04c f   LIBCMT:wsetloca.obj
 0001:0000e0c0       __init_dummy               0001f0c0 f   LIBCMT:wsetloca.obj
 0001:0000e0c4       __copy_locale_name         0001f0c4 f   LIBCMT:wsetloca.obj
 0001:0000e114       __lc_wcstolc               0001f114 f   LIBCMT:wsetloca.obj
 0001:0000e218       _wcscats                   0001f218 f   LIBCMT:wsetloca.obj
 0001:0000e268       __free_locale              0001f268 f   LIBCMT:wsetloca.obj
 0001:0000e26c       __get_current_locale       0001f26c f   LIBCMT:wsetloca.obj
 0001:0000e380       __lc_lctowcs               0001f380 f   LIBCMT:wsetloca.obj
 0001:0000e3e0       _expandlocale              0001f3e0 f   LIBCMT:wsetloca.obj
 0001:0000e9a0       _wsetlocale                0001f9a0 f   LIBCMT:wsetloca.obj
 0001:0000ea9c       _wcreate_locale            0001fa9c f   LIBCMT:wsetloca.obj
 0001:0000eb50       _create_locale             0001fb50 f   LIBCMT:wsetloca.obj
 0001:0000eb94       __create_locale            0001fb94 f   LIBCMT:wsetloca.obj
 0001:0000ec30       _frnd                      0001fc30 f   LIBCMT:frnd.obj
 0001:0000eddc       log                        0001fddc f   LIBCMT:log.obj
 0001:0000f024       _statfp                    00020024 f   LIBCMT:fpctrl.obj
 0001:0000f030       _clrfp                     00020030 f   LIBCMT:fpctrl.obj
 0001:0000f048       _ctrlfp                    00020048 f   LIBCMT:fpctrl.obj
 0001:0000f070       _set_statfp                00020070 f   LIBCMT:fpctrl.obj
 0001:0000f084       _scalb                     00020084 f   LIBCMT:ieeemisc.obj
 0001:0000f088       _nextafter                 00020088 f   LIBCMT:ieeemisc.obj
 0001:0000f284       _isnan                     00020284 f   LIBCMT:ieeemisc.obj
 0001:0000f2c0       _fpclass                   000202c0 f   LIBCMT:ieeemisc.obj
 0001:0000f344       _isnanf                    00020344 f   LIBCMT:ieeemisc.obj
 0001:0000f378       _isunordered               00020378 f   LIBCMT:ieeemisc.obj
 0001:0000f3d4       _isunorderedf              000203d4 f   LIBCMT:ieeemisc.obj
 0001:0000f420       _d_inttype                 00020420 f   LIBCMT:powhlp.obj
 0001:0000f478       _powhlp                    00020478 f   LIBCMT:powhlp.obj
 0001:0000f580       _set_exp                   00020580 f   LIBCMT:util.obj
 0001:0000f5b0       _get_exp                   000205b0 f   LIBCMT:util.obj
 0001:0000f5d4       _set_bexp                  000205d4 f   LIBCMT:util.obj
 0001:0000f600       _sptype                    00020600 f   LIBCMT:util.obj
 0001:0000f65c       _decomp                    0002065c f   LIBCMT:util.obj
 0001:0000f744       _add_exp                   00020744 f   LIBCMT:util.obj
 0001:0000f784       _copysign                  00020784 f   LIBCMT:_copysign.obj
 0001:0000f7a0       _raise_exc_ex              000207a0 f   LIBCMT:fpexcept.obj
 0001:0000fa94       _handle_exc                00020a94 f   LIBCMT:fpexcept.obj
 0001:0000fc54       _set_errno_from_matherr    00020c54 f   LIBCMT:fpexcept.obj
 0001:0000fca8       _errcode                   00020ca8 f   LIBCMT:fpexcept.obj
 0001:0000fce0       _raise_excf                00020ce0 f   LIBCMT:fpexcept.obj
 0001:0000fd00       _raise_exc                 00020d00 f   LIBCMT:fpexcept.obj
 0001:0000fd20       _umatherr                  00020d20 f   LIBCMT:fpexcept.obj
 0001:0000fdb8       _except2                   00020db8 f   LIBCMT:fpexcept.obj
 0001:0000fe78       _except1                   00020e78 f   LIBCMT:fpexcept.obj
 0001:0000ff38       _handle_qnan2              00020f38 f   LIBCMT:fpexcept.obj
 0001:0000ff88       _handle_qnan1              00020f88 f   LIBCMT:fpexcept.obj
 0001:0000ffe4       IsKModeAddr                00020fe4 f i LIBCMT:jmpunwd.obj
 0001:0000fff0       IsFpuUsed                  00020ff0 f   LIBCMT:jmpunwd.obj
 0001:00010008       __jump_unwind              00021008 f   LIBCMT:jmpunwd.obj
 0001:000100a8       __C_specific_handler       000210a8 f   LIBCMT:chandler.obj
 0001:000101d8       _getstream                 000211d8 f   LIBCMT:stream.obj
 0001:000102cc       _openfile                  000212cc f   LIBCMT:_open.obj
 0001:000104ec       __iob_func                 000214ec f   LIBCMT:_file.obj
 0001:000104f4       __initstdio                000214f4 f   LIBCMT:_file.obj
 0001:00010554       __endstdio                 00021554 f   LIBCMT:_file.obj
 0001:00010584       _lock_file                 00021584 f   LIBCMT:_file.obj
 0001:000105c4       _lock_file2                000215c4 f   LIBCMT:_file.obj
 0001:000105f0       _unlock_file               000215f0 f   LIBCMT:_file.obj
 0001:0001061c       _unlock_file2              0002161c f   LIBCMT:_file.obj
 0001:00010638       _freebuf                   00021638 f   LIBCMT:_freebuf.obj
 0001:0001066c       _fileno                    0002166c f   LIBCMT:fileno.obj
 0001:000106cc       _close_nolock              000216cc f   LIBCMT:close.obj
 0001:0001078c       _close                     0002178c f   LIBCMT:close.obj
 0001:00010890       get_short_arg              00021890 f i LIBCMT:output.obj
 0001:00010940       _output_l                  00021940 f   LIBCMT:output.obj
 0001:0001119c       _validate_param_reuseA     0002219c f   LIBCMT:outputp.obj
 0001:00011300       get_crtdouble_arg          00022300 f i LIBCMT:outputp.obj
 0001:000113b0       _output_p_l                000223b0 f   LIBCMT:outputp.obj
 0001:000120fc       _stbuf                     000230fc f   LIBCMT:_sftbuf.obj
 0001:0001218c       _ftbuf                     0002318c f   LIBCMT:_sftbuf.obj
 0001:000121bc       vprintf_helper             000231bc f   LIBCMT:vprintf.obj
 0001:00012224       _vprintf_p                 00023224 f   LIBCMT:vprintf.obj
 0001:00012234       vprintf_s                  00023234 f   LIBCMT:vprintf.obj
 0001:00012244       vprintf                    00023244 f   LIBCMT:vprintf.obj
 0001:00012254       _vprintf_p_l               00023254 f   LIBCMT:vprintf.obj
 0001:00012264       _vprintf_s_l               00023264 f   LIBCMT:vprintf.obj
 0001:00012274       _vprintf_l                 00023274 f   LIBCMT:vprintf.obj
 0001:00012284       _heap_init                 00023284 f   LIBCMT:heapinit.obj
 0001:000122a4       _heap_term                 000232a4 f   LIBCMT:heapinit.obj
 0001:000122b0       _get_heap_handle           000232b0 f   LIBCMT:heapinit.obj
 0001:000122bc       _initp_heap_handler        000232bc f   LIBCMT:handler.obj
 0001:000122c8       ?_set_new_handler@@YAP6AHI@ZP6AHI@Z@Z 000232c8 f   LIBCMT:handler.obj
 0001:000122f0       ?_query_new_handler@@YAP6AHI@ZXZ 000232f0 f   LIBCMT:handler.obj
 0001:000122fc       _callnewh                  000232fc f   LIBCMT:handler.obj
 0001:0001231c       ?_set_new_handler@@YAP6AHI@ZH@Z 0002331c f   LIBCMT:handler.obj
 0001:00012324       _GET_RTERRMSG              00023324 f   LIBCMT:crt0msg.obj
 0001:00012354       _NMSG_WRITE                00023354 f   LIBCMT:crt0msg.obj
 0001:0001250c       _FF_MSGBANNER              0002350c f   LIBCMT:crt0msg.obj
 0001:00012540       GetCurrentProcess          00023540 f i LIBCMT:crt0dat.obj
 0001:00012544       __freeCrtMemory            00023544 f   LIBCMT:crt0dat.obj
 0001:0001260c       __crtCorExitProcess        0002360c f   LIBCMT:crt0dat.obj
 0001:00012610       _lockexit                  00023610 f   LIBCMT:crt0dat.obj
 0001:00012618       _unlockexit                00023618 f   LIBCMT:crt0dat.obj
 0001:00012620       _init_pointers             00023620 f   LIBCMT:crt0dat.obj
 0001:00012670       _initterm_e                00023670 f   LIBCMT:crt0dat.obj
 0001:00012694       _get_wpgmptr               00023694 f   LIBCMT:crt0dat.obj
 0001:000126c0       _get_pgmptr                000236c0 f   LIBCMT:crt0dat.obj
 0001:000126ec       __copy_path_to_wide_string 000236ec f   LIBCMT:crt0dat.obj
 0001:0001276c       __crtExitProcess           0002376c f   LIBCMT:crt0dat.obj
 0001:00012774       _cinit                     00023774 f   LIBCMT:crt0dat.obj
 0001:000128b4       _c_exit                    000238b4 f   LIBCMT:crt0dat.obj
 0001:000128c0       _cexit                     000238c0 f   LIBCMT:crt0dat.obj
 0001:000128cc       _exit                      000238cc f   LIBCMT:crt0dat.obj
 0001:000128d4       exit                       000238d4 f   LIBCMT:crt0dat.obj
 0001:000128dc       _amsg_exit                 000238dc f   LIBCMT:crt0dat.obj
 0001:000128fc       __initlocale               000238fc f   LIBCMT:nlsdata.obj
 0001:00012914       vwprintf_helper            00023914 f   LIBCMT:vwprintf.obj
 0001:0001297c       _vwprintf_p                0002397c f   LIBCMT:vwprintf.obj
 0001:0001298c       vwprintf_s                 0002398c f   LIBCMT:vwprintf.obj
 0001:0001299c       vwprintf                   0002399c f   LIBCMT:vwprintf.obj
 0001:000129ac       _vwprintf_p_l              000239ac f   LIBCMT:vwprintf.obj
 0001:000129bc       _vwprintf_s_l              000239bc f   LIBCMT:vwprintf.obj
 0001:000129cc       _vwprintf_l                000239cc f   LIBCMT:vwprintf.obj
 0001:000129dc       vfwprintf_helper           000239dc f   LIBCMT:vfwprint.obj
 0001:00012a40       _vfwprintf_p               00023a40 f   LIBCMT:vfwprint.obj
 0001:00012a60       vfwprintf_s                00023a60 f   LIBCMT:vfwprint.obj
 0001:00012a80       vfwprintf                  00023a80 f   LIBCMT:vfwprint.obj
 0001:00012aa0       _vfwprintf_p_l             00023aa0 f   LIBCMT:vfwprint.obj
 0001:00012ac0       _vfwprintf_s_l             00023ac0 f   LIBCMT:vfwprint.obj
 0001:00012ae0       _vfwprintf_l               00023ae0 f   LIBCMT:vfwprint.obj
 0001:00012b90       _write_nolock              00023b90 f   LIBCMT:write.obj
 0001:00012fe0       _write                     00023fe0 f   LIBCMT:write.obj
 0001:000130ac       _commit                    000240ac f   LIBCMT:commit.obj
 0001:00013174       _mtinitlocks               00024174 f   LIBCMT:mlock.obj
 0001:000131a8       _mtdeletelocks             000241a8 f   LIBCMT:mlock.obj
 0001:000131f8       _lock                      000241f8 f   LIBCMT:mlock.obj
 0001:00013228       _unlock                    00024228 f   LIBCMT:mlock.obj
 0001:00013238       _lockerr_exit              00024238 f   LIBCMT:mlock.obj
 0001:00013240       _mtinitlocknum             00024240 f   LIBCMT:mlock.obj
 0001:000136a0       _W_Gettnames_l             000246a0 f   LIBCMT:wcsftime.obj
 0001:00013c5c       _W_Getmonths_l             00024c5c f   LIBCMT:wcsftime.obj
 0001:00013d5c       _W_Getdays_l               00024d5c f   LIBCMT:wcsftime.obj
 0001:00013f0c       _W_Gettnames               00024f0c f   LIBCMT:wcsftime.obj
 0001:00013f14       _W_Getmonths               00024f14 f   LIBCMT:wcsftime.obj
 0001:00013f1c       _W_Getdays                 00024f1c f   LIBCMT:wcsftime.obj
 0001:00014378       _Wcsftime_l                00025378 f   LIBCMT:wcsftime.obj
 0001:00014484       wcsftime                   00025484 f   LIBCMT:wcsftime.obj
 0001:0001449c       _wcsftime_l                0002549c f   LIBCMT:wcsftime.obj
 0001:000144b4       _Wcsftime                  000254b4 f   LIBCMT:wcsftime.obj
 0001:000144cc       wait_a_bit                 000254cc f i LIBCMT:crtheap.obj
 0001:000144f4       _set_malloc_crt_max_wait   000254f4 f   LIBCMT:crtheap.obj
 0001:00014504       _recalloc_crt              00025504 f   LIBCMT:crtheap.obj
 0001:00014550       _realloc_crt               00025550 f   LIBCMT:crtheap.obj
 0001:00014598       _calloc_crt                00025598 f   LIBCMT:crtheap.obj
 0001:000145e0       _malloc_crt                000255e0 f   LIBCMT:crtheap.obj
 0001:00014624       strcpy_s                   00025624 f   LIBCMT:strcpy_s.obj
 0001:0001467c       InitializeCriticalSectionAndSpinCount 0002567c f i LIBCMT:ioinit.obj
 0001:0001468c       __InitStdHandle            0002568c f   LIBCMT:ioinit.obj
 0001:000146d8       _ioinit0                   000256d8 f   LIBCMT:ioinit.obj
 0001:000146fc       _ioterm                    000256fc f   LIBCMT:ioinit.obj
 0001:0001476c       _ioinitCallback            0002576c f   LIBCMT:ioinit.obj
 0001:00014874       _ioinit                    00025874 f   LIBCMT:ioinit.obj
 0001:0001489c       vfprintf_helper            0002589c f   LIBCMT:vfprintf.obj
 0001:00014988       _vfprintf_p                00025988 f   LIBCMT:vfprintf.obj
 0001:000149a8       vfprintf_s                 000259a8 f   LIBCMT:vfprintf.obj
 0001:000149c8       vfprintf                   000259c8 f   LIBCMT:vfprintf.obj
 0001:000149e8       _vfprintf_p_l              000259e8 f   LIBCMT:vfprintf.obj
 0001:00014a08       _vfprintf_s_l              00025a08 f   LIBCMT:vfprintf.obj
 0001:00014a28       _vfprintf_l                00025a28 f   LIBCMT:vfprintf.obj
 0001:00014a48       _filbuf                    00025a48 f   LIBCMT:_filbuf.obj
 0001:00014c04       _INTRN_LOCALE_CONV         00025c04 f i LIBCMT:inputs.obj
 0001:00014c3c       _input_s_l                 00025c3c f   LIBCMT:inputs.obj
 0001:0001596c       _input_l                   0002696c f   LIBCMT:input.obj
 0001:000164dc       _vsnprintf_helper          000274dc f   LIBCMT:vsnprnc.obj
 0001:0001657c       _vsprintf_p_l              0002757c f   LIBCMT:vsnprnc.obj
 0001:000165a8       _vsprintf_p                000275a8 f   LIBCMT:vsnprnc.obj
 0001:000165d4       _vsnprintf_s_l             000275d4 f   LIBCMT:vsnprnc.obj
 0001:000166a8       _vsprintf_s_l              000276a8 f   LIBCMT:vsnprnc.obj
 0001:000166fc       _vsnprintf_c_l             000276fc f   LIBCMT:vsnprnc.obj
 0001:00016728       _vsnprintf_c               00027728 f   LIBCMT:vsnprnc.obj
 0001:00016754       _vsnprintf_s               00027754 f   LIBCMT:vsnprnc.obj
 0001:0001676c       vsprintf_s                 0002776c f   LIBCMT:vsnprnc.obj
 0001:0001690c       _wcstoul_l                 0002790c f   LIBCMT:wcstol.obj
 0001:00016914       wcstoul                    00027914 f   LIBCMT:wcstol.obj
 0001:0001691c       _wcstol_l                  0002791c f   LIBCMT:wcstol.obj
 0001:00016924       wcstol                     00027924 f   LIBCMT:wcstol.obj
 0001:00016b5c       _wcstoui64_l               00027b5c f   LIBCMT:wcstoq.obj
 0001:00016b7c       _wcstoui64                 00027b7c f   LIBCMT:wcstoq.obj
 0001:00016bb0       _wcstoi64_l                00027bb0 f   LIBCMT:wcstoq.obj
 0001:00016bd0       _wcstoi64                  00027bd0 f   LIBCMT:wcstoq.obj
 0001:00016c04       _set_error_mode            00027c04 f   LIBCMT:errmode.obj
 0001:00016c40       __set_app_type             00027c40 f   LIBCMT:errmode.obj
 0001:00016c4c       GetCurrentThread           00027c4c f i LIBCMT:tidtable.obj
 0001:00016c50       __get_flsindex             00027c50 f   LIBCMT:tidtable.obj
 0001:00016c5c       _mtterm                    00027c5c f   LIBCMT:tidtable.obj
 0001:00016c84       _initptd                   00027c84 f   LIBCMT:tidtable.obj
 0001:00016ca0       _freefls                   00027ca0 f   LIBCMT:tidtable.obj
 0001:00016d00       __threadhandle             00027d00 f   LIBCMT:tidtable.obj
 0001:00016d04       __threadid                 00027d04 f   LIBCMT:tidtable.obj
 0001:00016d0c       _getptd_noexit             00027d0c f   LIBCMT:tidtable.obj
 0001:00016d78       _freeptd                   00027d78 f   LIBCMT:tidtable.obj
 0001:00016dac       _getptd                    00027dac f   LIBCMT:tidtable.obj
 0001:00016dc8       _mtinit                    00027dc8 f   LIBCMT:tidtable.obj
 0001:00016e00       _RTC_Initialize            00027e00 f   LIBCMT:initsect.obj
 0001:00016e2c       _RTC_Terminate             00027e2c f   LIBCMT:initsect.obj
 0001:00016e58       _setenvp                   00027e58 f   LIBCMT:noenv.obj
 0001:00016e5c       __crtGetEnvironmentStringsA 00027e5c f   LIBCMT:noenv.obj
 0001:00016e60       _wsetenvp                  00027e60 f   LIBCMT:noenv.obj
 0001:00016e64       __crtGetEnvironmentStringsW 00027e64 f   LIBCMT:noenv.obj
 0001:00016e68       _set_pgmptr                00027e68 f i LIBCMT:stdargv.obj
 0001:00017144       _setargv                   00028144 f   LIBCMT:stdargv.obj
 0001:000171f4       __crt_set_acmdln           000281f4 f   LIBCMT:stdargv.obj
 0001:000172b0       _XcptFilter                000282b0 f   LIBCMT:winxfltr.obj
 0001:000173c0       __CppXcptFilter            000283c0 f   LIBCMT:winxfltr.obj
 0001:000173d4       __crtGetTickCount64        000283d4 f   LIBCMT:gs_support.obj
 0001:000173e4       __security_init_cookie     000283e4 f   LIBCMT:gs_support.obj
 0001:0001745c       _isatty                    0002845c f   LIBCMT:isatty.obj
 0001:000174c4       _getbuf                    000284c4 f   LIBCMT:_getbuf.obj
 0001:00017510       _lseeki64_nolock           00028510 f   LIBCMT:lseeki64.obj
 0001:0001757c       _lseeki64                  0002857c f   LIBCMT:lseeki64.obj
 0001:00017660       _fputwc_nolock             00028660 f   LIBCMT:fputwc.obj
 0001:000177d0       fputwc                     000287d0 f   LIBCMT:fputwc.obj
 0001:00017824       putwc                      00028824 f   LIBCMT:fputwc.obj
 0001:0001790c       _output_s_l                0002890c f   LIBCMT:outputs.obj
 0001:00018188       __security_push_cookie     00029188 f   LIBCMT:secpushpop.obj
 0001:000181a0       __security_pop_cookie      000291a0 f   LIBCMT:secpushpop.obj
 0001:000181bc       __ppgsfailure              000291bc f   LIBCMT:secpushpop.obj
 0001:000181d4       __GSHandlerCheckCommon     000291d4 f   LIBCMT:gshandler.obj
 0001:000181ec       __GSHandlerCheck           000291ec f   LIBCMT:gshandler.obj
 0001:00018210       _mbtowc_l                  00029210 f   LIBCMT:mbtowc.obj
 0001:000182f4       mbtowc                     000292f4 f   LIBCMT:mbtowc.obj
 0001:000182fc       __init_ctype               000292fc f   LIBCMT:initctyp.obj
 0001:000185b8       ___mb_cur_max_func         000295b8 f   LIBCMT:initctyp.obj
 0001:000185e8       ___lc_codepage_func        000295e8 f   LIBCMT:initctyp.obj
 0001:00018618       ___lc_collate_cp_func      00029618 f   LIBCMT:initctyp.obj
 0001:00018648       ___lc_locale_name_func     00029648 f   LIBCMT:initctyp.obj
 0001:00018678       ___mb_cur_max_l_func       00029678 f   LIBCMT:initctyp.obj
 0001:00018684       strncpy_s                  00029684 f   LIBCMT:strncpy_s.obj
 0001:00018720       atol                       00029720 f   LIBCMT:atox.obj
 0001:00018728       _atol_l                    00029728 f   LIBCMT:atox.obj
 0001:00018734       _atoi64                    00029734 f   LIBCMT:atox.obj
 0001:0001873c       _atoi64_l                  0002973c f   LIBCMT:atox.obj
 0001:00018748       atoi                       00029748 f   LIBCMT:atox.obj
 0001:00018750       _atoi_l                    00029750 f   LIBCMT:atox.obj
 0001:0001875c       _fptrap                    0002975c f   LIBCMT:crt0fp.obj
 0001:00018764       strrchr                    00029764 f   LIBCMT:strrchr.obj
 0001:00018798       _atoflt_l                  00029798 f   LIBCMT:atodbl.obj
 0001:00018830       _atoldbl_l                 00029830 f   LIBCMT:atodbl.obj
 0001:000188cc       _atodbl_l                  000298cc f   LIBCMT:atodbl.obj
 0001:00018964       _atoflt                    00029964 f   LIBCMT:atodbl.obj
 0001:0001896c       _atoldbl                   0002996c f   LIBCMT:atodbl.obj
 0001:00018974       _atodbl                    00029974 f   LIBCMT:atodbl.obj
 0001:0001897c       __isascii                  0002997c f i LIBCMT:_ctype.obj
 0001:00018988       __toascii                  00029988 f i LIBCMT:_ctype.obj
 0001:00018990       _iscntrl_l                 00029990 f i LIBCMT:_ctype.obj
 0001:000189fc       _isgraph_l                 000299fc f i LIBCMT:_ctype.obj
 0001:00018a6c       _isprint_l                 00029a6c f i LIBCMT:_ctype.obj
 0001:00018adc       _isalnum_l                 00029adc f i LIBCMT:_ctype.obj
 0001:00018b4c       _ispunct_l                 00029b4c f i LIBCMT:_ctype.obj
 0001:00018bb8       _isspace_l                 00029bb8 f i LIBCMT:_ctype.obj
 0001:00018c24       _isxdigit_l                00029c24 f i LIBCMT:_ctype.obj
 0001:00018c90       _isdigit_l                 00029c90 f i LIBCMT:_ctype.obj
 0001:00018cfc       _islower_l                 00029cfc f i LIBCMT:_ctype.obj
 0001:00018d68       _isupper_l                 00029d68 f i LIBCMT:_ctype.obj
 0001:00018dd4       _isalpha_l                 00029dd4 f i LIBCMT:_ctype.obj
 0001:00018e44       iscntrl                    00029e44 f i LIBCMT:_ctype.obj
 0001:00018e68       isgraph                    00029e68 f i LIBCMT:_ctype.obj
 0001:00018e90       isprint                    00029e90 f i LIBCMT:_ctype.obj
 0001:00018eb8       _iscsym_l                  00029eb8 f i LIBCMT:_ctype.obj
 0001:00018ed8       isalnum                    00029ed8 f i LIBCMT:_ctype.obj
 0001:00018f00       ispunct                    00029f00 f i LIBCMT:_ctype.obj
 0001:00018f24       isspace                    00029f24 f i LIBCMT:_ctype.obj
 0001:00018f48       isxdigit                   00029f48 f i LIBCMT:_ctype.obj
 0001:00018f6c       isdigit                    00029f6c f i LIBCMT:_ctype.obj
 0001:00018f90       islower                    00029f90 f i LIBCMT:_ctype.obj
 0001:00018fb4       isupper                    00029fb4 f i LIBCMT:_ctype.obj
 0001:00018fd8       _iscsymf_l                 00029fd8 f i LIBCMT:_ctype.obj
 0001:00018ff8       isalpha                    00029ff8 f i LIBCMT:_ctype.obj
 0001:00019020       __iscsym                   0002a020 f i LIBCMT:_ctype.obj
 0001:00019064       __iscsymf                  0002a064 f i LIBCMT:_ctype.obj
 0001:000190a8       _set_output_format         0002a0a8 f   LIBCMT:outputformat.obj
 0001:000190d4       _get_output_format         0002a0d4 f   LIBCMT:outputformat.obj
 0001:000190e0       __dtold                    0002a0e0 f   LIBCMT:cfout.obj
 0001:00019174       _fltout2                   0002a174 f   LIBCMT:cfout.obj
 0001:000191e8       _fptostr                   0002a1e8 f   LIBCMT:_fptostr.obj
 0001:000192a0       localeconv                 0002a2a0 f   LIBCMT:lconv.obj
 0001:000192e0       __free_lconv_mon           0002a2e0 f   LIBCMT:initmon.obj
 0001:00019394       __init_monetary            0002a394 f   LIBCMT:initmon.obj
 0001:00019700       __free_lconv_num           0002a700 f   LIBCMT:initnum.obj
 0001:00019754       __init_numeric             0002a754 f   LIBCMT:initnum.obj
 0001:0001a154       __free_lc_time             0002b154 f   LIBCMT:inittime.obj
 0001:0001a3e0       __init_time                0002b3e0 f   LIBCMT:inittime.obj
 0001:0001a530       __crtGetStringTypeA        0002b530 f   LIBCMT:a_str.obj
 0001:0001a598       iswctype                   0002b598 f   LIBCMT:iswctype.obj
 0001:0001a5f0       _iswctype_l                0002b5f0 f   LIBCMT:iswctype.obj
 0001:0001a5f4       is_wctype                  0002b5f4 f   LIBCMT:iswctype.obj
 0001:0001a5f8       __wcsnicmp_ascii           0002b5f8 f   LIBCMT:winapinls.obj
 0001:0001a638       GetTableIndexFromLcid      0002b638 f   LIBCMT:winapinls.obj
 0001:0001a674       __crtCompareStringEx       0002b674 f   LIBCMT:winapinls.obj
 0001:0001a698       __crtEnumSystemLocalesEx   0002b698 f   LIBCMT:winapinls.obj
 0001:0001a6a0       __crtGetDateFormatEx       0002b6a0 f   LIBCMT:winapinls.obj
 0001:0001a6c0       __crtGetLocaleInfoEx       0002b6c0 f   LIBCMT:winapinls.obj
 0001:0001a6c4       __crtGetTimeFormatEx       0002b6c4 f   LIBCMT:winapinls.obj
 0001:0001a6dc       __crtGetUserDefaultLocaleName 0002b6dc f   LIBCMT:winapinls.obj
 0001:0001a6e0       __crtIsValidLocaleName     0002b6e0 f   LIBCMT:winapinls.obj
 0001:0001a6e4       __crtLCMapStringEx         0002b6e4 f   LIBCMT:winapinls.obj
 0001:0001a708       GetTableIndexFromLocaleName 0002b708 f   LIBCMT:winapinls.obj
 0001:0001a750       __crtDownlevelLCIDToLocaleName 0002b750 f   LIBCMT:winapinls.obj
 0001:0001a7c0       __crtDownlevelLocaleNameToLCID 0002b7c0 f   LIBCMT:winapinls.obj
 0001:0001a7e8       __init_collate             0002b7e8 f   LIBCMT:initcoll.obj
 0001:0001a7ec       __pwctype_func             0002b7ec f   LIBCMT:ctype.obj
 0001:0001a7f8       __pctype_func              0002b7f8 f   LIBCMT:ctype.obj
 0001:0001a82c       wcsnlen                    0002b82c f   LIBCMT:wcslen_s.obj
 0001:0001a840       wcsncpy_s                  0002b840 f   LIBCMT:wcsncpy_s.obj
 0001:0001a8dc       wcscspn                    0002b8dc f   LIBCMT:wcscspn.obj
 0001:0001a910       wcscat_s                   0002b910 f   LIBCMT:wcscat_s.obj
 0001:0001a97c       wcscmp                     0002b97c f   LIBCMT:wcscmp.obj
 0001:0001a9b0       wcscpy_s                   0002b9b0 f   LIBCMT:wcscpy_s.obj
 0001:0001aa08       wcslen                     0002ba08 f   LIBCMT:wcslen.obj
 0001:0001aa1c       CeTlsAlloc                 0002ba1c f i LIBCMT:winapisupp.obj
 0001:0001aa24       CeTlsFree                  0002ba24 f i LIBCMT:winapisupp.obj
 0001:0001aa2c       __crtIsPackagedApp         0002ba2c f   LIBCMT:winapisupp.obj
 0001:0001aa30       __crtSetUnhandledExceptionFilter 0002ba30 f   LIBCMT:winapisupp.obj
 0001:0001aa34       __crtFlsGetValue           0002ba34 f   LIBCMT:winapisupp.obj
 0001:0001aa38       __crtFlsSetValue           0002ba38 f   LIBCMT:winapisupp.obj
 0001:0001aa3c       __crtInitializeCriticalSectionEx 0002ba3c f   LIBCMT:winapisupp.obj
 0001:0001aa5c       __crtInitOnceExecuteOnce   0002ba5c f   LIBCMT:winapisupp.obj
 0001:0001aab8       __crtCreateSemaphoreExW    0002bab8 f   LIBCMT:winapisupp.obj
 0001:0001aae0       __crtSetThreadStackGuarantee 0002bae0 f   LIBCMT:winapisupp.obj
 0001:0001aaf0       __crtCreateThreadpoolTimer 0002baf0 f   LIBCMT:winapisupp.obj
 0001:0001ab00       __crtSetThreadpoolTimer    0002bb00 f   LIBCMT:winapisupp.obj
 0001:0001ab18       __crtWaitForThreadpoolTimerCallbacks 0002bb18 f   LIBCMT:winapisupp.obj
 0001:0001ab28       __crtCloseThreadpoolTimer  0002bb28 f   LIBCMT:winapisupp.obj
 0001:0001ab38       __crtCreateThreadpoolWait  0002bb38 f   LIBCMT:winapisupp.obj
 0001:0001ab48       __crtSetThreadpoolWait     0002bb48 f   LIBCMT:winapisupp.obj
 0001:0001ab58       __crtCloseThreadpoolWait   0002bb58 f   LIBCMT:winapisupp.obj
 0001:0001ab68       __crtFlushProcessWriteBuffers 0002bb68 f   LIBCMT:winapisupp.obj
 0001:0001ab78       __crtFreeLibraryWhenCallbackReturns 0002bb78 f   LIBCMT:winapisupp.obj
 0001:0001ab88       __crtGetCurrentProcessorNumber 0002bb88 f   LIBCMT:winapisupp.obj
 0001:0001ab98       __crtGetLogicalProcessorInformation 0002bb98 f   LIBCMT:winapisupp.obj
 0001:0001abb8       __crtCreateSymbolicLinkW   0002bbb8 f   LIBCMT:winapisupp.obj
 0001:0001abd8       __crtGetModuleFileNameA    0002bbd8 f   LIBCMT:winapisupp.obj
 0001:0001ac50       __crtLoadWinApiPointers    0002bc50 f   LIBCMT:winapisupp.obj
 0001:0001ae20       __crtLoadSystemLibraryUsingFullPath 0002be20 f   LIBCMT:winapisupp.obj
 0001:0001ae28       __crtFlsAlloc              0002be28 f   LIBCMT:winapisupp.obj
 0001:0001ae30       __crtFlsFree               0002be30 f   LIBCMT:winapisupp.obj
 0001:0001b3f4       __get_qualified_locale_downlevel 0002c3f4 f   LIBCMT:getqloc_downlevel.obj
 0001:0001bb4c       __get_qualified_locale     0002cb4c f   LIBCMT:getqloc.obj
 0001:0001bd50       wcsncmp                    0002cd50 f   LIBCMT:wcsncmp.obj
 0001:0001bd7c       wcspbrk                    0002cd7c f   LIBCMT:wcspbrk.obj
 0001:0001bdac       __security_check_cookie    0002cdac f   LIBCMT:armsecgs.obj
 0001:0001bdc0       __gsfailure                0002cdc0 f   LIBCMT:armsecgs.obj
 0001:0001bdf4       __report_rangecheckfailure 0002cdf4 f   LIBCMT:armsecgs.obj
 0001:0001bed8       _handle_error              0002ced8 f   LIBCMT:libm_error.obj
 0001:0001bfc8       _handle_errorf             0002cfc8 f   LIBCMT:libm_error.obj
 0001:0001c0c4       ldexp                      0002d0c4 f   LIBCMT:ldexp.obj
 0001:0001c230       _matherr                   0002d230 f   LIBCMT:matherr.obj
 0001:0001c234       __C_ExecuteExceptionFilter 0002d234 f   LIBCMT:jmpuwind.obj
 0001:0001c234       __C_ExecuteTerminationHandler 0002d234     LIBCMT:jmpuwind.obj
 0001:0001c248       _mbsnbcmp_l                0002d248 f   LIBCMT:mbsnbcmp.obj
 0001:0001c344       _mbsnbcmp                  0002d344 f   LIBCMT:mbsnbcmp.obj
 0001:0001c34c       _mbsnbicmp_l               0002d34c f   LIBCMT:mbsnbicm.obj
 0001:0001c4a4       _mbsnbicmp                 0002d4a4 f   LIBCMT:mbsnbicm.obj
 0001:0001c4ac       _sopen_nolock              0002d4ac f   LIBCMT:open.obj
 0001:0001c4f8       _sopen_helper              0002d4f8 f   LIBCMT:open.obj
 0001:0001c59c       _open                      0002d59c f   LIBCMT:open.obj
 0001:0001c64c       _sopen_s                   0002d64c f   LIBCMT:open.obj
 0001:0001c670       _sopen                     0002d670 f   LIBCMT:open.obj
 0001:0001c6ac       _fcloseall                 0002d6ac f   LIBCMT:closeall.obj
 0001:0001c738       _set_osfhnd                0002d738 f   LIBCMT:osfinfo.obj
 0001:0001c788       _free_osfhnd               0002d788 f   LIBCMT:osfinfo.obj
 0001:0001c7e4       _get_osfhandle             0002d7e4 f   LIBCMT:osfinfo.obj
 0001:0001c85c       __lock_fhandle             0002d85c f   LIBCMT:osfinfo.obj
 0001:0001c8cc       _unlock_fhandle            0002d8cc f   LIBCMT:osfinfo.obj
 0001:0001c8e8       _alloc_osfhnd              0002d8e8 f   LIBCMT:osfinfo.obj
 0001:0001ca54       _wctomb_s_l                0002da54 f   LIBCMT:wctomb.obj
 0001:0001cb74       wctomb                     0002db74 f   LIBCMT:wctomb.obj
 0001:0001cba4       _wctomb_l                  0002dba4 f   LIBCMT:wctomb.obj
 0001:0001cc0c       wctomb_s                   0002dc0c f   LIBCMT:wctomb.obj
 0001:0001cc20       __crtMessageBoxWaitThreadW 0002dc20 f   LIBCMT:crtmboxw.obj
 0001:0001cc40       IsDebuggerPresent          0002dc40 f i LIBCMT:crtmboxw.obj
 0001:0001cc5c       __crtMessageBoxW           0002dc5c f   LIBCMT:crtmboxw.obj
 0001:0001cd08       _initp_misc_purevirt       0002dd08 f   LIBCMT:inithelp.obj
 0001:0001cd14       __getlocaleinfo            0002dd14 f   LIBCMT:inithelp.obj
 0001:0001ce28       _initp_misc_rand_s         0002de28 f   LIBCMT:rand_s.obj
 0001:0001ce34       rand_s                     0002de34 f   LIBCMT:rand_s.obj
 0001:0001ced4       _initp_misc_winsig         0002ded4 f   LIBCMT:winsig.obj
 0001:0001cf20       __get_sigabrt              0002df20 f   LIBCMT:winsig.obj
 0001:0001cf2c       __fpecode                  0002df2c f   LIBCMT:winsig.obj
 0001:0001cf3c       __pxcptinfoptrs            0002df3c f   LIBCMT:winsig.obj
 0001:0001cf4c       raise                      0002df4c f   LIBCMT:winsig.obj
 0001:0001d0bc       signal                     0002e0bc f   LIBCMT:winsig.obj
 0001:0001d1f0       ?terminate@@YAXXZ          0002e1f0 f   LIBCMT:hooks.obj
 0001:0001d20c       _initp_eh_hooks            0002e20c f   LIBCMT:hooks.obj
 0001:0001d21c       ?_inconsistency@@YAXXZ     0002e21c f   LIBCMT:hooks.obj
 0001:0001d238       ?unexpected@@YAXXZ         0002e238 f   LIBCMT:hooks.obj
 0001:0001d2d8       __onexitinit               0002e2d8 f   LIBCMT:onexit.obj
 0001:0001d308       _onexit                    0002e308 f   LIBCMT:onexit.obj
 0001:0001d3a8       atexit                     0002e3a8 f   LIBCMT:onexit.obj
 0001:0001d3c0       _wcsicmp_l                 0002e3c0 f   LIBCMT:wcsicmp.obj
 0001:0001d474       _wcsicmp                   0002e474 f   LIBCMT:wcsicmp.obj
 0001:0001d4d0       _mbstowcs_l_helper         0002e4d0 f   LIBCMT:mbstowcs.obj
 0001:0001d614       _mbstowcs_s_l              0002e614 f   LIBCMT:mbstowcs.obj
 0001:0001d704       _mbstowcs_l                0002e704 f   LIBCMT:mbstowcs.obj
 0001:0001d708       mbstowcs_s                 0002e708 f   LIBCMT:mbstowcs.obj
 0001:0001d720       mbstowcs                   0002e720 f   LIBCMT:mbstowcs.obj
 0001:0001d738       _recalloc                  0002e738 f   LIBCMT:recalloc.obj
 0001:0001d798       _calloc_impl               0002e798 f   LIBCMT:calloc_impl.obj
 0001:0001d810       _read_nolock               0002e810 f   LIBCMT:read.obj
 0001:0001dd4c       _read                      0002ed4c f   LIBCMT:read.obj
 0001:0001de30       _ungetc_nolock             0002ee30 f   LIBCMT:ungetc.obj
 0001:0001df28       ungetc                     0002ef28 f   LIBCMT:ungetc.obj
 0001:0001df80       _ismbcspace_l              0002ef80 f   LIBCMT:ismbspc.obj
 0001:0001e044       _ismbcspace                0002f044 f   LIBCMT:ismbspc.obj
 0001:0001e04c       _wchartodigit              0002f04c f   LIBCMT:wchtodig.obj
 0001:0001e1f4       _ismbbkana_l               0002f1f4 f   LIBCMT:ismbbyte.obj
 0001:0001e258       _ismbbtrail                0002f258 f   LIBCMT:ismbbyte.obj
 0001:0001e264       _ismbbtrail_l              0002f264 f   LIBCMT:ismbbyte.obj
 0001:0001e280       _ismbblead                 0002f280 f   LIBCMT:ismbbyte.obj
 0001:0001e28c       _ismbblead_l               0002f28c f   LIBCMT:ismbbyte.obj
 0001:0001e2a8       _ismbbpunct                0002f2a8 f   LIBCMT:ismbbyte.obj
 0001:0001e2b4       _ismbbpunct_l              0002f2b4 f   LIBCMT:ismbbyte.obj
 0001:0001e2d0       _ismbbprint                0002f2d0 f   LIBCMT:ismbbyte.obj
 0001:0001e2e0       _ismbbprint_l              0002f2e0 f   LIBCMT:ismbbyte.obj
 0001:0001e2fc       _ismbbgraph                0002f2fc f   LIBCMT:ismbbyte.obj
 0001:0001e30c       _ismbbgraph_l              0002f30c f   LIBCMT:ismbbyte.obj
 0001:0001e328       _ismbbalpha                0002f328 f   LIBCMT:ismbbyte.obj
 0001:0001e338       _ismbbalpha_l              0002f338 f   LIBCMT:ismbbyte.obj
 0001:0001e354       _ismbbalnum                0002f354 f   LIBCMT:ismbbyte.obj
 0001:0001e364       _ismbbalnum_l              0002f364 f   LIBCMT:ismbbyte.obj
 0001:0001e380       _ismbbkpunct               0002f380 f   LIBCMT:ismbbyte.obj
 0001:0001e38c       _ismbbkpunct_l             0002f38c f   LIBCMT:ismbbyte.obj
 0001:0001e3a8       _ismbbkprint               0002f3a8 f   LIBCMT:ismbbyte.obj
 0001:0001e3b4       _ismbbkprint_l             0002f3b4 f   LIBCMT:ismbbyte.obj
 0001:0001e3d0       _ismbbkalnum               0002f3d0 f   LIBCMT:ismbbyte.obj
 0001:0001e3dc       _ismbbkalnum_l             0002f3dc f   LIBCMT:ismbbyte.obj
 0001:0001e3f8       _ismbbkana                 0002f3f8 f   LIBCMT:ismbbyte.obj
 0001:0001e400       _flswbuf                   0002f400 f   LIBCMT:_flswbuf.obj
 0001:0001e780       _strtoui64_l               0002f780 f   LIBCMT:strtoq.obj
 0001:0001e7a0       _strtoui64                 0002f7a0 f   LIBCMT:strtoq.obj
 0001:0001e7d4       _strtoi64_l                0002f7d4 f   LIBCMT:strtoq.obj
 0001:0001e7f4       _strtoi64                  0002f7f4 f   LIBCMT:strtoq.obj
 0001:0001e828       __addl                     0002f828 f i LIBCMT:strgtold.obj
 0001:0001e848       __shl_12                   0002f848 f i LIBCMT:strgtold.obj
 0001:0001e884       __shr_12                   0002f884 f i LIBCMT:strgtold.obj
 0001:0001e8c0       __ld12mul                  0002f8c0 f i LIBCMT:strgtold.obj
 0001:0001eb18       __multtenpow12             0002fb18 f i LIBCMT:strgtold.obj
 0001:0001ee18       __strgtold12_l             0002fe18 f   LIBCMT:strgtold.obj
 0001:0001f49c       __STRINGTOLD_L             0003049c f   LIBCMT:strgtold.obj
 0001:0001f4dc       _ZeroTail                  000304dc f i LIBCMT:intrncvt.obj
 0001:0001f528       _CopyMan                   00030528 f i LIBCMT:intrncvt.obj
 0001:0001f538       _FillZeroMan               00030538 f i LIBCMT:intrncvt.obj
 0001:0001f548       _IsZeroMan                 00030548 f i LIBCMT:intrncvt.obj
 0001:0001f560       _ShrMan                    00030560 f i LIBCMT:intrncvt.obj
 0001:0001f5c8       _IncMan                    000305c8 f i LIBCMT:intrncvt.obj
 0001:0001f628       _RoundMan                  00030628 f i LIBCMT:intrncvt.obj
 0001:0001f708       _ld12told                  00030708 f   LIBCMT:intrncvt.obj
 0001:0001f7a4       _ld12cvt                   000307a4 f i LIBCMT:intrncvt.obj
 0001:0001fc24       _ld12tof                   00030c24 f   LIBCMT:intrncvt.obj
 0001:000200a8       _ld12tod                   000310a8 f   LIBCMT:intrncvt.obj
 0001:0002052c       __add_12                   0003152c f i LIBCMT:x10fout.obj
 0001:00020590       $I10_OUTPUT                00031590 f   LIBCMT:x10fout.obj
 0001:00020e7c       _wcstombs_l_helper         00031e7c f   LIBCMT:wcstombs.obj
 0001:00021058       _wcstombs_s_l              00032058 f   LIBCMT:wcstombs.obj
 0001:00021100       wcstombs                   00032100 f   LIBCMT:wcstombs.obj
 0001:00021108       _wcstombs_l                00032108 f   LIBCMT:wcstombs.obj
 0001:0002110c       wcstombs_s                 0003210c f   LIBCMT:wcstombs.obj
 0001:00021124       _wcsnicmp_l                00032124 f   LIBCMT:wcsnicmp.obj
 0001:000211e4       _wcsnicmp                  000321e4 f   LIBCMT:wcsnicmp.obj
 0001:000213d4       _ultow_s                   000323d4 f   LIBCMT:xtows.obj
 0001:000213e8       _ltow_s                    000323e8 f   LIBCMT:xtows.obj
 0001:00021408       _itow_s                    00032408 f   LIBCMT:xtows.obj
 0001:0002142c       _ui64tow_s                 0003242c f   LIBCMT:xtows.obj
 0001:00021444       _i64tow_s                  00032444 f   LIBCMT:xtows.obj
 0001:00021470       wcschr                     00032470 f   LIBCMT:wcschr.obj
 0001:00021488       __report_gsfailure         00032488 f   LIBCMT:armsechr.obj
 0001:000214e8       strncmp                    000324e8 f   LIBCMT:strncmp.obj
 0001:00021594       __ascii_strnicmp           00032594 f   LIBCMT:strnicmp.obj
 0001:000215d0       _strnicmp_l                000325d0 f   LIBCMT:strnicmp.obj
 0001:0002167c       _strnicmp                  0003267c f   LIBCMT:strnicmp.obj
 0001:000216f4       _wsopen_nolock             000326f4 f   LIBCMT:wopen.obj
 0001:00021d04       _wsopen_helper             00032d04 f   LIBCMT:wopen.obj
 0001:00021da8       _wopen                     00032da8 f   LIBCMT:wopen.obj
 0001:00021e58       _wsopen_s                  00032e58 f   LIBCMT:wopen.obj
 0001:00021e7c       _wsopen                    00032e7c f   LIBCMT:wopen.obj
 0001:00021fa8       __crtGetLocaleInfoA        00032fa8 f   LIBCMT:a_loc.obj
 0001:00022008       abort                      00033008 f   LIBCMT:abort.obj
 0001:00022024       _set_abort_behavior        00033024 f   LIBCMT:abort.obj
 0001:00022048       _msize                     00033048 f   LIBCMT:msize.obj
 0001:00022078       _towlower_l                00033078 f   LIBCMT:towlower.obj
 0001:0002212c       towlower                   0003312c f   LIBCMT:towlower.obj
 0001:00022134       __mtold12                  00033134 f   LIBCMT:mantold.obj
 0001:000222dc       __report_gsfailure_context 000332dc f   LIBCMT:gscore.obj
 0001:000222e8       _setmode_nolock            000332e8 f   LIBCMT:setmode.obj
 0001:000223a8       _set_fmode                 000333a8 f   LIBCMT:setmode.obj
 0001:000223e4       _get_fmode                 000333e4 f   LIBCMT:setmode.obj
 0001:0002240c       _setmode                   0003340c f   LIBCMT:setmode.obj
 0001:000224e4       _chsize_nolock             000334e4 f   LIBCMT:chsize.obj
 0001:0002264c       _chsize_s                  0003364c f   LIBCMT:chsize.obj
 0001:00022738       _chsize                    00033738 f   LIBCMT:chsize.obj
 0001:00022754       __crtLCMapStringW          00033754 f   LIBCMT:w_map.obj
 0001:0002278c       CreateToolhelp32Snapshot   0003378c f   toolhelp:toolhelp.dll
 0001:00022798       Module32First              00033798 f   toolhelp:toolhelp.dll
 0001:000227a4       Module32Next               000337a4 f   toolhelp:toolhelp.dll
 0001:000227b0       CloseToolhelp32Snapshot    000337b0 f   toolhelp:toolhelp.dll
 0001:000227bc       Heap32ListFirst            000337bc f   toolhelp:toolhelp.dll
 0001:000227c8       Heap32First                000337c8 f   toolhelp:toolhelp.dll
 0001:000227d4       Heap32Next                 000337d4 f   toolhelp:toolhelp.dll
 0001:000227e0       Heap32ListNext             000337e0 f   toolhelp:toolhelp.dll
 0001:000227ec       Thread32First              000337ec f   toolhelp:toolhelp.dll
 0001:000227f8       Thread32Next               000337f8 f   toolhelp:toolhelp.dll
 0001:00022804       Process32First             00033804 f   toolhelp:toolhelp.dll
 0001:00022810       Process32Next              00033810 f   toolhelp:toolhelp.dll
 0001:0002281c       WSACleanup                 0003381c f   winsock:WINSOCK.dll
 0001:00022828       WSAStartup                 00033828 f   winsock:WINSOCK.dll
 0001:00022834       select                     00033834 f   winsock:WINSOCK.dll
 0001:00022840       send                       00033840 f   winsock:WINSOCK.dll
 0001:0002284c       recv                       0003384c f   winsock:WINSOCK.dll
 0001:00022858       socket                     00033858 f   winsock:WINSOCK.dll
 0001:00022864       ioctlsocket                00033864 f   winsock:WINSOCK.dll
 0001:00022870       htons                      00033870 f   winsock:WINSOCK.dll
 0001:0002287c       bind                       0003387c f   winsock:WINSOCK.dll
 0001:00022888       ntohs                      00033888 f   winsock:WINSOCK.dll
 0001:00022894       ntohl                      00033894 f   winsock:WINSOCK.dll
 0001:000228a0       closesocket                000338a0 f   winsock:WINSOCK.dll
 0001:000228ac       listen                     000338ac f   winsock:WINSOCK.dll
 0001:000228b8       shutdown                   000338b8 f   winsock:WINSOCK.dll
 0001:000228c4       connect                    000338c4 f   winsock:WINSOCK.dll
 0001:000228d0       setsockopt                 000338d0 f   winsock:WINSOCK.dll
 0001:000228dc       accept                     000338dc f   winsock:WINSOCK.dll
 0001:000228e8       inet_addr                  000338e8 f   winsock:WINSOCK.dll
 0001:000228f4       htonl                      000338f4 f   winsock:WINSOCK.dll
 0001:00022900       recvfrom                   00033900 f   winsock:WINSOCK.dll
 0001:0002290c       sendto                     0003390c f   winsock:WINSOCK.dll
 0001:00022918       GetSystemTimeAsFileTime    00033918 f   coredll:COREDLL.dll
 0001:00022924       HeapReAlloc                00033924 f   coredll:COREDLL.dll
 0001:00022930       HeapFree                   00033930 f   coredll:COREDLL.dll
 0001:0002293c       HeapAlloc                  0003393c f   coredll:COREDLL.dll
 0001:00022948       MultiByteToWideChar        00033948 f   coredll:COREDLL.dll
 0001:00022954       WideCharToMultiByte        00033954 f   coredll:COREDLL.dll
 0001:00022960       TlsGetValue                00033960 f   coredll:COREDLL.dll
 0001:0002296c       GetTimeZoneInformation     0003396c f   coredll:COREDLL.dll
 0001:00022978       RaiseException             00033978 f   coredll:COREDLL.dll
 0001:00022984       InterlockedIncrement       00033984 f   coredll:COREDLL.dll
 0001:00022990       InterlockedDecrement       00033990 f   coredll:COREDLL.dll
 0001:0002299c       GetCPInfo                  0003399c f   coredll:COREDLL.dll
 0001:000229a8       GetOEMCP                   000339a8 f   coredll:COREDLL.dll
 0001:000229b4       GetACP                     000339b4 f   coredll:COREDLL.dll
 0001:000229c0       IsValidCodePage            000339c0 f   coredll:COREDLL.dll
 0001:000229cc       RtlCaptureNonVolatileContext 000339cc f   coredll:COREDLL.dll
 0001:000229d8       RtlUnwind                  000339d8 f   coredll:COREDLL.dll
 0001:000229e4       RtlResumeFromContext       000339e4 f   coredll:COREDLL.dll
 0001:000229f0       GetProcessHeap             000339f0 f   coredll:COREDLL.dll
 0001:000229fc       WriteFile                  000339fc f   coredll:COREDLL.dll
 0001:00022a08       FlushFileBuffers           00033a08 f   coredll:COREDLL.dll
 0001:00022a14       OpenStdConsole             00033a14 f   coredll:COREDLL.dll
 0001:00022a20       GetCommandLineW            00033a20 f   coredll:COREDLL.dll
 0001:00022a2c       QueryPerformanceCounter    00033a2c f   coredll:COREDLL.dll
 0001:00022a38       SetFilePointer             00033a38 f   coredll:COREDLL.dll
 0001:00022a44       GetStringTypeW             00033a44 f   coredll:COREDLL.dll
 0001:00022a50       CompareStringEx            00033a50 f   coredll:COREDLL.dll
 0001:00022a5c       EnumSystemLocalesEx        00033a5c f   coredll:COREDLL.dll
 0001:00022a68       GetDateFormatEx            00033a68 f   coredll:COREDLL.dll
 0001:00022a74       GetLocaleInfoEx            00033a74 f   coredll:COREDLL.dll
 0001:00022a80       GetTimeFormatEx            00033a80 f   coredll:COREDLL.dll
 0001:00022a8c       GetUserDefaultLocaleName   00033a8c f   coredll:COREDLL.dll
 0001:00022a98       IsValidLocaleName          00033a98 f   coredll:COREDLL.dll
 0001:00022aa4       LCMapStringEx              00033aa4 f   coredll:COREDLL.dll
 0001:00022ab0       TlsCall                    00033ab0 f   coredll:COREDLL.dll
 0001:00022abc       TlsSetValue                00033abc f   coredll:COREDLL.dll
 0001:00022ac8       InterlockedCompareExchange 00033ac8 f   coredll:COREDLL.dll
 0001:00022ad4       InterlockedExchange        00033ad4 f   coredll:COREDLL.dll
 0001:00022ae0       CreateSemaphoreW           00033ae0 f   coredll:COREDLL.dll
 0001:00022aec       GetModuleHandleW           00033aec f   coredll:COREDLL.dll
 0001:00022af8       LoadLibraryExW             00033af8 f   coredll:COREDLL.dll
 0001:00022b04       GetUserDefaultLCID         00033b04 f   coredll:COREDLL.dll
 0001:00022b10       GetLocaleInfoW             00033b10 f   coredll:COREDLL.dll
 0001:00022b1c       EnumSystemLocalesW         00033b1c f   coredll:COREDLL.dll
 0001:00022b28       IsValidLocale              00033b28 f   coredll:COREDLL.dll
 0001:00022b34       CheckRemoteDebuggerPresent 00033b34 f   coredll:COREDLL.dll
 0001:00022b40       GetProcAddressA            00033b40 f   coredll:COREDLL.dll
 0001:00022b4c       CeGenRandom                00033b4c f   coredll:COREDLL.dll
 0001:00022b58       ReadFile                   00033b58 f   coredll:COREDLL.dll
 0001:00022b64       CreateFileW                00033b64 f   coredll:COREDLL.dll
 0001:00022b70       HeapSize                   00033b70 f   coredll:COREDLL.dll
 0001:00022b7c       __crt_fatal                00033b7c f   coredll:COREDLL.dll
 0001:00022b88       SetEndOfFile               00033b88 f   coredll:COREDLL.dll
 0002:00000000       __xc_a                     0003d000     LIBCMT:crt0init.obj
 0002:00000104       __xc_z                     0003d104     LIBCMT:crt0init.obj
 0002:00000208       __xi_a                     0003d208     LIBCMT:crt0init.obj
 0002:00000520       __xi_z                     0003d520     LIBCMT:crt0init.obj
 0002:00000624       __xp_a                     0003d624     LIBCMT:crt0init.obj
 0002:00000930       __xp_z                     0003d930     LIBCMT:crt0init.obj
 0002:00000a34       __xt_a                     0003da34     LIBCMT:crt0init.obj
 0002:00000b38       __xt_z                     0003db38     LIBCMT:crt0init.obj
 0002:00000c78       ??_C@_09FCIJKDPO@cemon?4log?$AA@ 0003dc78     util.obj
 0002:00000c84       ??_C@_03CCGKKFHG@a?$CLt?$AA@ 0003dc84     util.obj
 0002:00000c88       ??_C@_02DKCKIIND@?$CFs?$AA@ 0003dc88     util.obj
 0002:00000c8c       ??_C@_15GANGMFKL@?$AA?$CF?$AAs?$AA?$AA@ 0003dc8c     util.obj
 0002:00000c94       ??_C@_0BD@CAJBKHIP@?$CFY?9?$CFm?9?$CFd?9?9?$CFH?9?$CFM?9?$CFS?$AA@ 0003dc94     util.obj
 0002:00000cb0       ??_C@_1EM@JIAKEEKE@?$AA?$FL?$AA?$CF?$AA0?$AA4?$AAi?$AA?9?$AA?$CF?$AA0?$AA2?$AAi?$AA?9?$AA?$CF?$AA0?$AA2?$AAi?$AA?9?$AA?9?$AA?$CF?$AA0?$AA2?$AAi?$AA?9?$AA?$CF?$AA0?$AA2?$AAi?$AA?9?$AA?$CF?$AA0?$AA2?$AAi?$AA?9@ 0003dcb0     util.obj
 0002:00000d0c       ??_C@_1DO@EFPLHCOB@?$AAG?$AAe?$AAt?$AAM?$AAo?$AAd?$AAu?$AAl?$AAe?$AAF?$AAi?$AAl?$AAe?$AAN?$AAa?$AAm?$AAe?$AA?$CI?$AA?$CJ?$AA?5?$AAf?$AAa?$AAi?$AAl?$AAe?$AAd?$AA?5?$AA?$CF?$AAi?$AA?6?$AA?$AA@ 0003dd0c     util.obj
 0002:00000d58       ??_C@_1CG@MODGNIFD@?$AAW?$AAS?$AAA?$AAS?$AAt?$AAa?$AAr?$AAt?$AAu?$AAp?$AA?5?$AAe?$AAr?$AAr?$AA?5?$AA?$CF?$AAi?$AA?6?$AA?$AA@ 0003dd58     comm.obj
 0002:00000d88       ??_C@_1CE@CCLNFDHF@?$AAs?$AAe?$AAn?$AAd?$AA?$CI?$AA?$CJ?$AA?5?$AAf?$AAa?$AAi?$AAl?$AAe?$AAd?$AA?5?$AA?$CF?$AAi?$AA?6?$AA?$AA@ 0003dd88     comm.obj
 0002:00000db4       ??_C@_1CG@PEEJGJGN@?$AAs?$AAe?$AAn?$AAd?$AA?$CI?$AA?$CJ?$AA?5?$AAi?$AAn?$AAc?$AAo?$AAm?$AAp?$AAl?$AAe?$AAt?$AAe?$AA?6?$AA?$AA@ 0003ddb4     comm.obj
 0002:00000de4       ??_C@_1CE@NMKEFGCG@?$AAr?$AAe?$AAc?$AAv?$AA?$CI?$AA?$CJ?$AA?5?$AAf?$AAa?$AAi?$AAl?$AAe?$AAd?$AA?5?$AA?$CF?$AAi?$AA?6?$AA?$AA@ 0003dde4     comm.obj
 0002:00000e10       ??_C@_1CO@OKAIGIFP@?$AAc?$AAa?$AAn?$AA?5?$AAn?$AAo?$AAt?$AA?5?$AAc?$AAr?$AAe?$AAa?$AAt?$AAe?$AA?5?$AAs?$AAo?$AAc?$AAk?$AAe?$AAt?$AA?6?$AA?$AA@ 0003de10     comm.obj
 0002:00000e48       ??_C@_1DE@FOMDKOLF@?$AAi?$AAo?$AAc?$AAt?$AAl?$AAs?$AAo?$AAc?$AAk?$AAe?$AAt?$AA?$CI?$AA?$CJ?$AA?5?$AAf?$AAa?$AAi?$AAl?$AAe?$AAd?$AA?3?$AA?5?$AA?$CF?$AAi?$AA?6?$AA?$AA@ 0003de48     comm.obj
 0002:00000e88       ??_C@_1DK@MGCIHDEA@?$AAb?$AAi?$AAn?$AAd?$AA?$CI?$AA?$CJ?$AA?5?$AAf?$AAa?$AAi?$AAl?$AAe?$AAd?$AA?3?$AA?5?$AA?$CF?$AAi?$AA?5?$AA?9?$AA?5?$AA0?$AAx?$AA?$CF?$AAx?$AA?3?$AA?$CF?$AAi?$AA?6?$AA?$AA@ 0003de88     comm.obj
 0002:00000ed0       ??_C@_1CK@HGPNCABH@?$AAl?$AAi?$AAs?$AAt?$AAe?$AAn?$AA?$CI?$AA?$CJ?$AA?5?$AAf?$AAa?$AAi?$AAl?$AAe?$AAd?$AA?3?$AA?5?$AA?$CF?$AAi?$AA?6?$AA?$AA@ 0003ded0     comm.obj
 0002:00000f04       ??_C@_1CM@MADNOPIO@?$AAl?$AAi?$AAs?$AAt?$AAe?$AAn?$AAi?$AAn?$AAg?$AA?5?$AAo?$AAn?$AA?5?$AAp?$AAo?$AAr?$AAt?$AA?5?$AA?$CF?$AAi?$AA?6?$AA?$AA@ 0003df04     comm.obj
 0002:00000f38       ??_C@_1EG@CEDLMFGN@?$AAc?$AAl?$AAo?$AAs?$AAe?$AA?5?$AAs?$AAo?$AAc?$AAk?$AAe?$AAt?$AA?5?$AA0?$AAx?$AA?$CF?$AAx?$AA?0?$AA?5?$AAn?$AAu?$AAm?$AA_?$AAc?$AAl?$AAi?$AAe?$AAn?$AAt?$AAs?$AA?5?$AA?$CF@ 0003df38     comm.obj
 0002:00000f8c       ??_C@_1CA@BPHIFFH@?$AAn?$AAu?$AAm?$AA_?$AAc?$AAl?$AAi?$AAe?$AAn?$AAt?$AAs?$AA?5?$AA?$CF?$AAi?$AA?6?$AA?$AA@ 0003df8c     comm.obj
 0002:00000fb4       ??_C@_1DE@JMPELKOK@?$AAc?$AAa?$AAn?$AA?5?$AAn?$AAo?$AAt?$AA?5?$AAc?$AAr?$AAe?$AAa?$AAt?$AAe?$AA?5?$AAs?$AAo?$AAc?$AAk?$AAe?$AAt?$AA?5?$AA?$CF?$AAi?$AA?6?$AA?$AA@ 0003dfb4     comm.obj
 0002:00000ff4       ??_C@_1CG@HDJCCA@?$AAi?$AAn?$AAe?$AAt?$AA_?$AAa?$AAd?$AAd?$AAr?$AA?$CI?$AA?$CJ?$AA?5?$AAe?$AAr?$AAr?$AAo?$AAr?$AA?6?$AA?$AA@ 0003dff4     comm.obj
 0002:00001024       ??_C@_1CK@CBPBNADB@?$AAc?$AAo?$AAn?$AAn?$AAe?$AAc?$AAt?$AA?$CI?$AA?$CJ?$AA?5?$AAf?$AAa?$AAi?$AAl?$AAe?$AAd?$AA?5?$AA?$CF?$AAi?$AA?6?$AA?$AA@ 0003e024     comm.obj
 0002:00001058       ??_C@_1DA@DENMBIGK@?$AAs?$AAe?$AAt?$AAs?$AAo?$AAc?$AAk?$AAo?$AAp?$AAt?$AA?$CI?$AA?$CJ?$AA?5?$AAf?$AAa?$AAi?$AAl?$AAe?$AAd?$AA?5?$AA?$CF?$AAi?$AA?6?$AA?$AA@ 0003e058     comm.obj
 0002:00001094       ??_C@_1DC@DDCBHJCF@?$AAi?$AAo?$AAc?$AAt?$AAl?$AAs?$AAo?$AAc?$AAk?$AAe?$AAt?$AA?$CI?$AA?$CJ?$AA?5?$AAf?$AAa?$AAi?$AAl?$AAe?$AAd?$AA?5?$AA?$CF?$AAi?$AA?6?$AA?$AA@ 0003e094     comm.obj
 0002:000010d0       ??_C@_1CO@EGOKGPBI@?$AAs?$AAo?$AAc?$AAk?$AAe?$AAt?$AA_?$AAr?$AAe?$AAa?$AAd?$AAy?$AA?$CI?$AA?$CJ?$AA?5?$AAe?$AAr?$AAr?$AA?5?$AA?$CF?$AAi?$AA?6?$AA?$AA@ 0003e0d0     comm.obj
 0002:00001108       ??_C@_1DA@BACKKFON@?$AAe?$AAr?$AAr?$AAo?$AAr?$AA?5?$AAa?$AAc?$AAc?$AAe?$AAp?$AAt?$AA?5?$AAf?$AAa?$AAi?$AAl?$AAe?$AAd?$AA?5?$AA?$CF?$AAi?$AA?6?$AA?$AA@ 0003e108     comm.obj
 0002:00001148       ??_C@_1GE@JIMABGLN@?$AAa?$AAc?$AAc?$AAe?$AAp?$AAt?$AAe?$AAd?$AA?5?$AAc?$AAl?$AAi?$AAe?$AAn?$AAt?$AA?5?$AA?$CD?$AA?5?$AA?$CF?$AAi?$AA?5?$AA?$CF?$AAi?$AA?4?$AA?$CF?$AAi?$AA?4?$AA?$CF?$AAi?$AA?4?$AA?$CF?$AAi@ 0003e148     comm.obj
 0002:000011c0       ??_C@_1EG@JJLAHAKE@?$AAc?$AAa?$AAn?$AAn?$AAo?$AAt?$AA?5?$AAs?$AAe?$AAr?$AAv?$AAe?$AA?5?$AAm?$AAo?$AAr?$AAe?$AA?5?$AAt?$AAh?$AAa?$AAn?$AA?5?$AA?$CF?$AAi?$AA?5?$AAc?$AAl?$AAi?$AAe?$AAn?$AAt@ 0003e1c0     comm.obj
 0002:00001214       ??_C@_1DK@CFFDLIFF@?$AAc?$AAl?$AAo?$AAs?$AAi?$AAn?$AAg?$AA?5?$AAc?$AAl?$AAi?$AAe?$AAn?$AAt?$AA?5?$AAs?$AAo?$AAc?$AAk?$AAe?$AAt?$AA?3?$AA?5?$AA0?$AAx?$AA?$CF?$AAx?$AA?6?$AA?$AA@ 0003e214     comm.obj
 0002:0000125c       ??_C@_1CG@OKJEHAPN@?$AAs?$AAo?$AAc?$AAk?$AAe?$AAt?$AA_?$AAs?$AAe?$AAr?$AAv?$AAe?$AAr?$AA_?$AAe?$AAn?$AAd?$AA?6?$AA?$AA@ 0003e25c     comm.obj
 0002:0000128c       ??_C@_1DM@DDLGKLOK@?$AAs?$AAo?$AAc?$AAk?$AAe?$AAt?$AA?5?$AAe?$AAr?$AAr?$AAo?$AAr?$AA?5?$AAi?$AAn?$AA?5?$AAr?$AAe?$AAc?$AAv?$AA?0?$AA?5?$AAr?$AAe?$AAt?$AA?5?$AA?$CF?$AAi?$AA?6?$AA?$AA@ 0003e28c     comm.obj
 0002:000012d8       ??_C@_1DO@OHFDLDMD@?$AAd?$AAi?$AAs?$AAc?$AAo?$AAv?$AAe?$AAr?$AAy?$AA?5?$AAs?$AAe?$AAr?$AAv?$AAe?$AAr?$AA?5?$AAi?$AAn?$AAi?$AAt?$AAi?$AAa?$AAl?$AAi?$AAz?$AAe?$AAd?$AA?4?$AA?6?$AA?$AA@ 0003e2d8     cpumon.obj
 0002:00001328       ??_C@_1FA@IBINMCNL@?$AAd?$AAi?$AAs?$AAc?$AAo?$AAv?$AAe?$AAr?$AAy?$AA?5?$AAs?$AAe?$AAr?$AAv?$AAe?$AAr?$AA?5?$AAf?$AAa?$AAi?$AAl?$AAe?$AAd?$AA?5?$AAt?$AAo?$AA?5?$AAi?$AAn?$AAi?$AAt?$AAi@ 0003e328     cpumon.obj
 0002:00001388       ??_C@_06DEBEKHOP@rtmcli?$AA@ 0003e388     cpumon.obj
 0002:00001390       ??_C@_06LPOPHAJE@rtmsrv?$AA@ 0003e390     cpumon.obj
 0002:00001398       ??_C@_1BA@HJBAMEKO@?$AAr?$AAt?$AAm?$AA?4?$AAc?$AAf?$AAg?$AA?$AA@ 0003e398     cpumon.obj
 0002:000013ac       ??_C@_07OJGBNNLN@rtm?4cfg?$AA@ 0003e3ac     cpumon.obj
 0002:000013b8       ??_C@_1EO@MIJBIFOE@?$AAf?$AAa?$AAi?$AAl?$AAe?$AAd?$AA?5?$AAt?$AAo?$AA?5?$AAg?$AAe?$AAt?$AA?5?$AAw?$AAo?$AAr?$AAk?$AAi?$AAn?$AAg?$AA?5?$AAd?$AAi?$AAr?$AAe?$AAc?$AAt?$AAo?$AAr?$AAy?$AA?5@ 0003e3b8     cpumon.obj
 0002:00001418       ??_C@_02BKFDOEMK@wt?$AA@   0003e418     cpumon.obj
 0002:0000141c       ??_C@_1BG@OLIJNHBC@?$AAs?$AAa?$AAv?$AAi?$AAn?$AAg?$AA?5?$AA?$CF?$AAs?$AA?6?$AA?$AA@ 0003e41c     cpumon.obj
 0002:00001438       ??_C@_0CN@IAMCNGEK@?$CFlu?3priority?6?$CFi?3capture_on_dev?6?$CF@ 0003e438     cpumon.obj
 0002:00001470       ??_C@_02BMJICGCB@rt?$AA@   0003e470     cpumon.obj
 0002:00001474       ??_C@_1BI@OEACMCCG@?$AAl?$AAo?$AAa?$AAd?$AAi?$AAn?$AAg?$AA?5?$AA?$CF?$AAs?$AA?6?$AA?$AA@ 0003e474     cpumon.obj
 0002:00001490       ??_C@_08IIJFADMF@priority?$AA@ 0003e490     cpumon.obj
 0002:0000149c       ??_C@_05CIHMGJBO@?$CFi?3?$CFs?$AA@ 0003e49c     cpumon.obj
 0002:000014a4       ??_C@_1CC@FGEJKKIN@?$AAs?$AAe?$AAt?$AA?5?$AAp?$AAr?$AAi?$AAo?$AAr?$AAi?$AAt?$AAy?$AA?5?$AA?$CF?$AAi?$AA?6?$AA?$AA@ 0003e4a4     cpumon.obj
 0002:000014cc       ??_C@_08CBFCMNKF@interval?$AA@ 0003e4cc     cpumon.obj
 0002:000014d8       ??_C@_1CM@IGGFOAJN@?$AAs?$AAe?$AAt?$AA?5?$AAs?$AAn?$AAa?$AAp?$AA?5?$AAi?$AAn?$AAt?$AAe?$AAr?$AAv?$AAa?$AAl?$AA?5?$AA?$CF?$AAi?$AA?6?$AA?$AA@ 0003e4d8     cpumon.obj
 0002:0000150c       ??_C@_07HAFPJOBC@logging?$AA@ 0003e50c     cpumon.obj
 0002:00001518       ??_C@_1BA@BKMGIBPB@?$AAe?$AAn?$AAa?$AAb?$AAl?$AAe?$AAd?$AA?$AA@ 0003e518     cpumon.obj
 0002:0000152c       ??_C@_1BC@LGPIFEA@?$AAd?$AAi?$AAs?$AAa?$AAb?$AAl?$AAe?$AAd?$AA?$AA@ 0003e52c     cpumon.obj
 0002:00001544       ??_C@_1CA@NCKJGCLH@?$AAl?$AAo?$AAg?$AA?5?$AAt?$AAo?$AA?5?$AAf?$AAi?$AAl?$AAe?$AA?5?$AA?$CF?$AAs?$AA?6?$AA?$AA@ 0003e544     cpumon.obj
 0002:0000156c       ??_C@_0P@GGEAEIJE@capture_on_dev?$AA@ 0003e56c     cpumon.obj
 0002:00001580       ??_C@_1CK@LNCOGGAC@?$AAs?$AAa?$AAv?$AAe?$AA?5?$AAt?$AAo?$AA?5?$AAr?$AAt?$AAm?$AA?5?$AAf?$AAi?$AAl?$AAe?$AA?5?$AA?$CF?$AAs?$AA?6?$AA?$AA@ 0003e580     cpumon.obj
 0002:000015b4       ??_C@_1BE@CFBJDAHI@?$AAl?$AAo?$AAg?$AA?$CF?$AAs?$AA?4?$AAr?$AAt?$AAm?$AA?$AA@ 0003e5b4     cpumon.obj
 0002:000015cc       ??_C@_09KCAFNBOA@log?$CFs?4rtm?$AA@ 0003e5cc     cpumon.obj
 0002:000015d8       ??_C@_0CI@OHCEMNMB@RTM?5file?5?$CC?$CFs?$CC?5set?5to?5record?5data@ 0003e5d8     cpumon.obj
 0002:00001608       ??_C@_1BI@EENIJIDL@?$AAt?$AAh?$AAr?$AAe?$AAa?$AAd?$AAs?$AA?4?$AAt?$AAx?$AAt?$AA?$AA@ 0003e608     cpumon.obj
 0002:00001624       ??_C@_0M@MICKPBCA@threads?4txt?$AA@ 0003e624     cpumon.obj
 0002:00001634       ??_C@_13HGPDMIBE@?$AA?$DP?$AA?$AA@ 0003e634     cpumon.obj
 0002:00001638       ??_C@_1IA@PCCHHOA@?$AAN?$AAo?$AA?5?$AA?$CC?$AA?$CF?$AAs?$AA?$CC?$AA?5?$AAf?$AAi?$AAl?$AAe?$AA?5?$AAf?$AAo?$AAu?$AAn?$AAd?$AA?4?$AA?5?$AAY?$AAo?$AAu?$AA?5?$AAc?$AAa?$AAn?$AA?5?$AAs?$AAp?$AAe?$AAc@ 0003e638     cpumon.obj
 0002:000016d4       ??_C@_1BO@NKKAKFGC@?$AAp?$AAr?$AAo?$AAc?$AAe?$AAs?$AAs?$AAi?$AAn?$AAg?$AA?5?$AA?$CF?$AAs?$AA?6?$AA?$AA@ 0003e6d4     cpumon.obj
 0002:000016f8       ??_C@_06BEBACANP@?$CFlu?3?$CFs?$AA@ 0003e6f8     cpumon.obj
 0002:00001700       ??_C@_1O@PODECHNM@?$AA?$CF?$AAi?$AA?3?$AA?$CF?$AAs?$AA?6?$AA?$AA@ 0003e700     cpumon.obj
 0002:00001710       ??_C@_1HC@EKKBFGIN@?$AAf?$AAa?$AAi?$AAl?$AAe?$AAd?$AA?5?$AAt?$AAo?$AA?5?$AAa?$AAl?$AAl?$AAo?$AAc?$AAa?$AAt?$AAe?$AA?5?$AA?$CF?$AAi?$AA?5?$AAb?$AAy?$AAt?$AAe?$AAs?$AA?5?$AAo?$AAf?$AA?5?$AAp@ 0003e710     cpumon.obj
 0002:00001798       ??_C@_1HA@NFJNHHPN@?$AAf?$AAa?$AAi?$AAl?$AAe?$AAd?$AA?5?$AAt?$AAo?$AA?5?$AAa?$AAl?$AAl?$AAo?$AAc?$AAa?$AAt?$AAe?$AA?5?$AA?$CF?$AAi?$AA?5?$AAb?$AAy?$AAt?$AAe?$AAs?$AA?5?$AAo?$AAf?$AA?5?$AAt@ 0003e798     cpumon.obj
 0002:00001820       ??_C@_1FA@CCNNIALB@?$AAT?$AAe?$AAr?$AAm?$AAi?$AAn?$AAa?$AAt?$AAe?$AAP?$AAr?$AAo?$AAc?$AAe?$AAs?$AAs?$AA?5?$AAF?$AAA?$AAI?$AAL?$AAE?$AAD?$AA?5?$AAw?$AAi?$AAt?$AAh?$AA?5?$AAe?$AAr?$AAr@ 0003e820     cpumon.obj
 0002:00001880       ??_C@_1FI@MAAJKOIC@?$AAC?$AAe?$AAG?$AAe?$AAt?$AAP?$AAr?$AAo?$AAc?$AAe?$AAs?$AAs?$AAA?$AAf?$AAf?$AAi?$AAn?$AAi?$AAt?$AAy?$AA?5?$AAF?$AAA?$AAI?$AAL?$AAE?$AAD?$AA?5?$AAw?$AAi?$AAt?$AAh@ 0003e880     cpumon.obj
 0002:000018f0       ??_C@_1FA@CPPPNDBE@?$AAC?$AAe?$AAS?$AAe?$AAt?$AAP?$AAr?$AAo?$AAc?$AAe?$AAs?$AAs?$AAA?$AAf?$AAf?$AAi?$AAn?$AAi?$AAt?$AAy?$AA?5?$AAf?$AAa?$AAi?$AAl?$AAe?$AAd?$AA?5?$AAw?$AAi?$AAt?$AAh@ 0003e8f0     cpumon.obj
 0002:00001950       ??_C@_1EO@MBNOEIMN@?$AAC?$AAe?$AAS?$AAe?$AAt?$AAT?$AAh?$AAr?$AAe?$AAa?$AAd?$AAA?$AAf?$AAf?$AAi?$AAn?$AAi?$AAt?$AAy?$AA?5?$AAf?$AAa?$AAi?$AAl?$AAe?$AAd?$AA?5?$AAw?$AAi?$AAt?$AAh?$AA?5@ 0003e950     cpumon.obj
 0002:000019b0       ??_C@_1FA@CPFAMMNK@?$AAC?$AAe?$AAS?$AAe?$AAt?$AAT?$AAh?$AAr?$AAe?$AAa?$AAd?$AAP?$AAr?$AAi?$AAo?$AAr?$AAi?$AAt?$AAy?$AA?5?$AAf?$AAa?$AAi?$AAl?$AAe?$AAd?$AA?5?$AAw?$AAi?$AAt?$AAh?$AA?5@ 0003e9b0     cpumon.obj
 0002:00001a10       ??_C@_1FM@FGKJKAPP@?$AAF?$AAa?$AAi?$AAl?$AAe?$AAd?$AA?5?$AAt?$AAo?$AA?5?$AAc?$AAr?$AAe?$AAa?$AAt?$AAe?$AA?5?$AAs?$AAn?$AAa?$AAp?$AAs?$AAh?$AAo?$AAt?$AA?4?$AA?5?$AAE?$AAr?$AAr?$AA?3?$AA?5@ 0003ea10     cpumon.obj
 0002:00001a80       ??_C@_1EI@LPFEBCLL@?$AAC?$AAe?$AAG?$AAe?$AAt?$AAI?$AAd?$AAl?$AAe?$AAT?$AAi?$AAm?$AAe?$AAE?$AAx?$AA?5?$AAf?$AAa?$AAi?$AAl?$AAe?$AAd?$AA?5?$AAf?$AAo?$AAr?$AA?5?$AAc?$AAo?$AAr?$AAe?$AA?5@ 0003ea80     cpumon.obj
 0002:00001ad8       ??_C@_1DE@HKBKDOAF@?$AAi?$AAn?$AAc?$AAr?$AAe?$AAa?$AAs?$AAi?$AAn?$AAg?$AA?5?$AAp?$AAs?$AA?5?$AAa?$AAr?$AAr?$AAa?$AAy?$AA?5?$AAs?$AAi?$AAz?$AAe?$AA?6?$AA?$AA@ 0003ead8     cpumon.obj
 0002:00001b18       ??_C@_1FK@JHGKFFNC@?$AAf?$AAa?$AAi?$AAl?$AAe?$AAd?$AA?5?$AAt?$AAo?$AA?5?$AAa?$AAl?$AAl?$AAo?$AAc?$AAa?$AAt?$AAe?$AA?5?$AAp?$AAr?$AAo?$AAc?$AAe?$AAs?$AAs?$AA?5?$AAm?$AAe?$AAm?$AAo?$AAr@ 0003eb18     cpumon.obj
 0002:00001b84       ??_C@_1BE@PAKAHDCL@?$AA?$CF?$AAi?$AA?5?$AA?9?$AA?$DO?$AA?5?$AA?$CF?$AAi?$AA?6?$AA?$AA@ 0003eb84     cpumon.obj
 0002:00001b9c       ??_C@_1DE@JPLHIMDK@?$AAi?$AAn?$AAc?$AAr?$AAe?$AAa?$AAs?$AAi?$AAn?$AAg?$AA?5?$AAt?$AAh?$AA?5?$AAa?$AAr?$AAr?$AAa?$AAy?$AA?5?$AAs?$AAi?$AAz?$AAe?$AA?6?$AA?$AA@ 0003eb9c     cpumon.obj
 0002:00001be0       ??_C@_1FI@KGNCKKMH@?$AAf?$AAa?$AAi?$AAl?$AAe?$AAd?$AA?5?$AAt?$AAo?$AA?5?$AAa?$AAl?$AAl?$AAo?$AAc?$AAa?$AAt?$AAe?$AA?5?$AAt?$AAh?$AAr?$AAe?$AAa?$AAd?$AA?5?$AAm?$AAe?$AAm?$AAo?$AAr?$AAy@ 0003ebe0     cpumon.obj
 0002:00001c50       ??_C@_1EC@DDKJKCEG@?$AAf?$AAa?$AAi?$AAl?$AAe?$AAd?$AA?5?$AAt?$AAo?$AA?5?$AAr?$AAe?$AAs?$AAt?$AAa?$AAr?$AAt?$AA?5?$AA?$CC?$AA?$CF?$AAs?$AA?$CC?$AA?0?$AA?5?$AAe?$AAr?$AAr?$AA?3?$AA?5?$AA?$CF?$AAi?$AA?6@ 0003ec50     cpumon.obj
 0002:00001ca0       ??_C@_1EK@LFJPEHJB@?$AAf?$AAa?$AAi?$AAl?$AAe?$AAd?$AA?5?$AAt?$AAo?$AA?5?$AAs?$AAt?$AAa?$AAr?$AAt?$AA?5?$AAc?$AAl?$AAo?$AAn?$AAe?$AA?5?$AA?$CC?$AA?$CF?$AAs?$AA?$CC?$AA?0?$AA?5?$AAe?$AAr?$AAr?$AA?3@ 0003eca0     cpumon.obj
 0002:00001cf8       ??_C@_1EO@IBOCFPH@?$AAf?$AAa?$AAi?$AAl?$AAe?$AAd?$AA?5?$AAt?$AAo?$AA?5?$AAs?$AAt?$AAa?$AAr?$AAt?$AA?5?$AAp?$AAr?$AAo?$AAc?$AAe?$AAs?$AAs?$AA?5?$AA?$CC?$AA?$CF?$AAs?$AA?$CC?$AA?0?$AA?5?$AAe?$AAr@ 0003ecf8     cpumon.obj
 0002:00001d58       ??_C@_1EO@LEFPAMMO@?$AAf?$AAa?$AAi?$AAl?$AAe?$AAd?$AA?5?$AAt?$AAo?$AA?5?$AAr?$AAe?$AAs?$AAt?$AAa?$AAr?$AAt?$AA?5?$AAc?$AAe?$AAm?$AAo?$AAn?$AA?5?$AA?$CC?$AA?$CF?$AAs?$AA?$CC?$AA?0?$AA?5?$AAe?$AAr@ 0003ed58     cpumon.obj
 0002:00001db8       ??_C@_1CO@HIJODEKL@?$AAT?$AAh?$AAr?$AAe?$AAa?$AAd?$AA3?$AA2?$AAF?$AAi?$AAr?$AAs?$AAt?$AA?5?$AAe?$AAr?$AAr?$AA?5?$AA?$CF?$AAi?$AA?4?$AA?6?$AA?$AA@ 0003edb8     cpumon.obj
 0002:00001df0       ??_C@_1DO@JKIGBADO@?$AAG?$AAe?$AAt?$AAT?$AAh?$AAr?$AAe?$AAa?$AAd?$AAT?$AAi?$AAm?$AAe?$AAs?$AA?5?$AAf?$AAa?$AAi?$AAl?$AAe?$AAd?$AA?0?$AA?5?$AAe?$AAr?$AAr?$AA?5?$AA?$CF?$AAi?$AA?6?$AA?$AA@ 0003edf0     cpumon.obj
 0002:00001e3c       ??_C@_1DA@GONFPKP@?$AAP?$AAr?$AAo?$AAc?$AAe?$AAs?$AAs?$AA3?$AA2?$AAF?$AAi?$AAr?$AAs?$AAt?$AA?5?$AAe?$AAr?$AAr?$AA?5?$AA?$CF?$AAi?$AA?4?$AA?6?$AA?$AA@ 0003ee3c     cpumon.obj
 0002:00001e78       ??_C@_1BI@CJKPFBEK@?$AAc?$AAo?$AAr?$AAe?$AAd?$AAl?$AAl?$AA?4?$AAd?$AAl?$AAl?$AA?$AA@ 0003ee78     cpumon.obj
 0002:00001e98       ??_C@_1FE@KCDABPLD@?$AAL?$AAo?$AAa?$AAd?$AAL?$AAi?$AAb?$AAr?$AAa?$AAr?$AAy?$AA?5?$AAc?$AAo?$AAr?$AAe?$AAd?$AAl?$AAl?$AA?4?$AAd?$AAl?$AAl?$AA?5?$AAf?$AAa?$AAi?$AAl?$AAe?$AAd?$AA?4?$AA?5@ 0003ee98     cpumon.obj
 0002:00001efc       ??_C@_1BG@JJJAOFJK@?$AAO?$AAp?$AAe?$AAn?$AAT?$AAh?$AAr?$AAe?$AAa?$AAd?$AA?$AA@ 0003eefc     cpumon.obj
 0002:00001f18       ??_C@_1CC@EPECNINB@?$AAc?$AAo?$AAr?$AAe?$AAd?$AAl?$AAl?$AA?5?$AAl?$AAo?$AAa?$AAd?$AAe?$AAd?$AA?4?$AA?6?$AA?$AA@ 0003ef18     cpumon.obj
 0002:00001f40       ??_C@_1CO@MIGKOGOI@?$AAO?$AAp?$AAe?$AAn?$AAT?$AAh?$AAr?$AAe?$AAa?$AAd?$AA?5?$AAn?$AAo?$AAt?$AA?5?$AAf?$AAo?$AAu?$AAn?$AAd?$AA?$CB?$AA?6?$AA?$AA@ 0003ef40     cpumon.obj
 0002:00001f78       ??_C@_1CG@LECDKENP@?$AAS?$AAe?$AAt?$AAP?$AAr?$AAo?$AAc?$AAP?$AAe?$AAr?$AAm?$AAi?$AAs?$AAs?$AAi?$AAo?$AAn?$AAs?$AA?$AA@ 0003ef78     cpumon.obj
 0002:00001fa8       ??_C@_1FA@MECFMHLK@?$AAS?$AAe?$AAt?$AAP?$AAr?$AAo?$AAc?$AAP?$AAe?$AAr?$AAm?$AAi?$AAs?$AAs?$AAi?$AAo?$AAn?$AAs?$AA?5?$AAn?$AAo?$AAt?$AA?5?$AAf?$AAo?$AAu?$AAn?$AAd?$AA?4?$AA?5?$AAE?$AAx@ 0003efa8     cpumon.obj
 0002:00002008       ??_C@_1CE@DGBECBPM@?$AAW?$AAa?$AAi?$AAt?$AAF?$AAo?$AAr?$AAD?$AAe?$AAb?$AAu?$AAg?$AAE?$AAv?$AAe?$AAn?$AAt?$AA?$AA@ 0003f008     cpumon.obj
 0002:00002038       ??_C@_1EC@HCMIAPMK@?$AAS?$AAe?$AAt?$AAP?$AAr?$AAo?$AAc?$AAP?$AAe?$AAr?$AAm?$AAi?$AAs?$AAs?$AAi?$AAo?$AAn?$AAs?$AA?$CI?$AA0?$AAx?$AAF?$AAF?$AAF?$AAF?$AAF?$AAF?$AAF?$AAF?$AA?$CJ?$AA?4?$AA?6@ 0003f038     cpumon.obj
 0002:00002088       ??_C@_1DM@FEHNNPCO@?$AAW?$AAa?$AAi?$AAt?$AAF?$AAo?$AAr?$AAD?$AAe?$AAb?$AAu?$AAg?$AAE?$AAv?$AAe?$AAn?$AAt?$AA?5?$AAn?$AAo?$AAt?$AA?5?$AAf?$AAo?$AAu?$AAn?$AAd?$AA?$CB?$AA?6?$AA?$AA@ 0003f088     cpumon.obj
 0002:000020d0       ??_C@_1CG@NOCDNAMN@?$AAC?$AAo?$AAn?$AAt?$AAi?$AAn?$AAu?$AAe?$AAD?$AAe?$AAb?$AAu?$AAg?$AAE?$AAv?$AAe?$AAn?$AAt?$AA?$AA@ 0003f0d0     cpumon.obj
 0002:00002100       ??_C@_1DE@KEPBNEML@?$AAW?$AAa?$AAi?$AAt?$AAF?$AAo?$AAr?$AAD?$AAe?$AAb?$AAu?$AAg?$AAE?$AAv?$AAe?$AAn?$AAt?$AA?5?$AAf?$AAo?$AAu?$AAn?$AAd?$AA?$CB?$AA?6?$AA?$AA@ 0003f100     cpumon.obj
 0002:00002140       ??_C@_1DO@PCIGGKCA@?$AAC?$AAo?$AAn?$AAt?$AAi?$AAn?$AAu?$AAe?$AAD?$AAe?$AAb?$AAu?$AAg?$AAE?$AAv?$AAe?$AAn?$AAt?$AA?5?$AAn?$AAo?$AAt?$AA?5?$AAf?$AAo?$AAu?$AAn?$AAd?$AA?$CB?$AA?6?$AA?$AA@ 0003f140     cpumon.obj
 0002:0000218c       ??_C@_1CG@BNAPHKFC@?$AAG?$AAe?$AAt?$AAT?$AAh?$AAr?$AAe?$AAa?$AAd?$AAC?$AAa?$AAl?$AAl?$AAS?$AAt?$AAa?$AAc?$AAk?$AA?$AA@ 0003f18c     cpumon.obj
 0002:000021bc       ??_C@_1DG@DACADDBG@?$AAC?$AAo?$AAn?$AAt?$AAi?$AAn?$AAu?$AAe?$AAD?$AAe?$AAb?$AAu?$AAg?$AAE?$AAv?$AAe?$AAn?$AAt?$AA?5?$AAf?$AAo?$AAu?$AAn?$AAd?$AA?$CB?$AA?6?$AA?$AA@ 0003f1bc     cpumon.obj
 0002:000021fc       ??_C@_1DO@BHCODAPL@?$AAG?$AAe?$AAt?$AAT?$AAh?$AAr?$AAe?$AAa?$AAd?$AAC?$AAa?$AAl?$AAl?$AAS?$AAt?$AAa?$AAc?$AAk?$AA?5?$AAn?$AAo?$AAt?$AA?5?$AAf?$AAo?$AAu?$AAn?$AAd?$AA?$CB?$AA?6?$AA?$AA@ 0003f1fc     cpumon.obj
 0002:00002248       ??_C@_1CA@DEFEPFGN@?$AAC?$AAe?$AAG?$AAe?$AAt?$AAI?$AAd?$AAl?$AAe?$AAT?$AAi?$AAm?$AAe?$AAE?$AAx?$AA?$AA@ 0003f248     cpumon.obj
 0002:00002270       ??_C@_1DG@OCOBAFPC@?$AAG?$AAe?$AAt?$AAT?$AAh?$AAr?$AAe?$AAa?$AAd?$AAC?$AAa?$AAl?$AAl?$AAS?$AAt?$AAa?$AAc?$AAk?$AA?5?$AAf?$AAo?$AAu?$AAn?$AAd?$AA?$CB?$AA?6?$AA?$AA@ 0003f270     cpumon.obj
 0002:000022b0       ??_C@_1DE@KNEADIAB@?$AAG?$AAe?$AAt?$AAI?$AAd?$AAl?$AAe?$AAT?$AAi?$AAm?$AAe?$AAE?$AAx?$AA?5?$AAn?$AAo?$AAt?$AA?5?$AAf?$AAo?$AAu?$AAn?$AAd?$AA?$CB?$AA?6?$AA?$AA@ 0003f2b0     cpumon.obj
 0002:000022f0       ??_C@_1CO@DOEJNFOA@?$AAG?$AAe?$AAt?$AAS?$AAy?$AAs?$AAt?$AAe?$AAm?$AAP?$AAo?$AAw?$AAe?$AAr?$AAS?$AAt?$AAa?$AAt?$AAu?$AAs?$AAE?$AAx?$AA?$AA@ 0003f2f0     cpumon.obj
 0002:00002328       ??_C@_1DA@NLMEKFGA@?$AAC?$AAe?$AAG?$AAe?$AAt?$AAI?$AAd?$AAl?$AAe?$AAT?$AAi?$AAm?$AAe?$AAE?$AAx?$AA?5?$AAf?$AAo?$AAu?$AAn?$AAd?$AA?$CB?$AA?6?$AA?$AA@ 0003f328     cpumon.obj
 0002:00002368       ??_C@_1EG@CJAJLDNF@?$AAG?$AAe?$AAt?$AAS?$AAy?$AAs?$AAt?$AAe?$AAm?$AAP?$AAo?$AAw?$AAe?$AAr?$AAS?$AAt?$AAa?$AAt?$AAu?$AAs?$AAE?$AAx?$AA?5?$AAn?$AAo?$AAt?$AA?5?$AAf?$AAo?$AAu?$AAn?$AAd@ 0003f368     cpumon.obj
 0002:000023bc       ??_C@_1CG@JOGHHDDK@?$AAG?$AAl?$AAo?$AAb?$AAa?$AAl?$AAM?$AAe?$AAm?$AAo?$AAr?$AAy?$AAS?$AAt?$AAa?$AAt?$AAu?$AAs?$AA?$AA@ 0003f3bc     cpumon.obj
 0002:000023ec       ??_C@_1DO@ONKBBOEC@?$AAG?$AAe?$AAt?$AAS?$AAy?$AAs?$AAt?$AAe?$AAm?$AAP?$AAo?$AAw?$AAe?$AAr?$AAS?$AAt?$AAa?$AAt?$AAu?$AAs?$AAE?$AAx?$AA?5?$AAf?$AAo?$AAu?$AAn?$AAd?$AA?$CB?$AA?6?$AA?$AA@ 0003f3ec     cpumon.obj
 0002:00002438       ??_C@_1DO@DENMCJDM@?$AAG?$AAl?$AAo?$AAb?$AAa?$AAl?$AAM?$AAe?$AAm?$AAo?$AAr?$AAy?$AAS?$AAt?$AAa?$AAt?$AAu?$AAs?$AA?5?$AAn?$AAo?$AAt?$AA?5?$AAf?$AAo?$AAu?$AAn?$AAd?$AA?$CB?$AA?6?$AA?$AA@ 0003f438     cpumon.obj
 0002:00002484       ??_C@_1CK@IPIGJHGG@?$AAC?$AAe?$AAG?$AAe?$AAt?$AAP?$AAr?$AAo?$AAc?$AAe?$AAs?$AAs?$AAA?$AAf?$AAf?$AAi?$AAn?$AAi?$AAt?$AAy?$AA?$AA@ 0003f484     cpumon.obj
 0002:000024b8       ??_C@_1DG@HMOFNIJD@?$AAG?$AAl?$AAo?$AAb?$AAa?$AAl?$AAM?$AAe?$AAm?$AAo?$AAr?$AAy?$AAS?$AAt?$AAa?$AAt?$AAu?$AAs?$AA?5?$AAf?$AAo?$AAu?$AAn?$AAd?$AA?$CB?$AA?6?$AA?$AA@ 0003f4b8     cpumon.obj
 0002:000024f8       ??_C@_1EC@BEKNINHH@?$AAC?$AAe?$AAG?$AAe?$AAt?$AAP?$AAr?$AAo?$AAc?$AAe?$AAs?$AAs?$AAA?$AAf?$AAf?$AAi?$AAn?$AAi?$AAt?$AAy?$AA?5?$AAn?$AAo?$AAt?$AA?5?$AAf?$AAo?$AAu?$AAn?$AAd?$AA?$CB?$AA?6@ 0003f4f8     cpumon.obj
 0002:00002548       ??_C@_1CI@OEMDIBFE@?$AAC?$AAe?$AAG?$AAe?$AAt?$AAT?$AAh?$AAr?$AAe?$AAa?$AAd?$AAA?$AAf?$AAf?$AAi?$AAn?$AAi?$AAt?$AAy?$AA?$AA@ 0003f548     cpumon.obj
 0002:00002578       ??_C@_1DK@GOGLONOG@?$AAC?$AAe?$AAG?$AAe?$AAt?$AAP?$AAr?$AAo?$AAc?$AAe?$AAs?$AAs?$AAA?$AAf?$AAf?$AAi?$AAn?$AAi?$AAt?$AAy?$AA?5?$AAf?$AAo?$AAu?$AAn?$AAd?$AA?$CB?$AA?6?$AA?$AA@ 0003f578     cpumon.obj
 0002:000025c0       ??_C@_1EA@BMJBADLC@?$AAC?$AAe?$AAG?$AAe?$AAt?$AAT?$AAh?$AAr?$AAe?$AAa?$AAd?$AAA?$AAf?$AAf?$AAi?$AAn?$AAi?$AAt?$AAy?$AA?5?$AAn?$AAo?$AAt?$AA?5?$AAf?$AAo?$AAu?$AAn?$AAd?$AA?$CB?$AA?6?$AA?$AA@ 0003f5c0     cpumon.obj
 0002:0000260c       ??_C@_1CK@GBIEJJEA@?$AAC?$AAe?$AAS?$AAe?$AAt?$AAP?$AAr?$AAo?$AAc?$AAe?$AAs?$AAs?$AAA?$AAf?$AAf?$AAi?$AAn?$AAi?$AAt?$AAy?$AA?$AA@ 0003f60c     cpumon.obj
 0002:00002640       ??_C@_1DI@FCGLDKLK@?$AAC?$AAe?$AAG?$AAe?$AAt?$AAT?$AAh?$AAr?$AAe?$AAa?$AAd?$AAA?$AAf?$AAf?$AAi?$AAn?$AAi?$AAt?$AAy?$AA?5?$AAf?$AAo?$AAu?$AAn?$AAd?$AA?$CB?$AA?6?$AA?$AA@ 0003f640     cpumon.obj
 0002:00002688       ??_C@_1EC@BLDACALL@?$AAC?$AAe?$AAS?$AAe?$AAt?$AAP?$AAr?$AAo?$AAc?$AAe?$AAs?$AAs?$AAA?$AAf?$AAf?$AAi?$AAn?$AAi?$AAt?$AAy?$AA?5?$AAn?$AAo?$AAt?$AA?5?$AAf?$AAo?$AAu?$AAn?$AAd?$AA?$CB?$AA?6@ 0003f688     cpumon.obj
 0002:000026d8       ??_C@_1CI@DNNCLLJP@?$AAC?$AAe?$AAS?$AAe?$AAt?$AAT?$AAh?$AAr?$AAe?$AAa?$AAd?$AAA?$AAf?$AAf?$AAi?$AAn?$AAi?$AAt?$AAy?$AA?$AA@ 0003f6d8     cpumon.obj
 0002:00002708       ??_C@_1DK@HCKHNAFO@?$AAC?$AAe?$AAS?$AAe?$AAt?$AAP?$AAr?$AAo?$AAc?$AAe?$AAs?$AAs?$AAA?$AAf?$AAf?$AAi?$AAn?$AAi?$AAt?$AAy?$AA?5?$AAf?$AAo?$AAu?$AAn?$AAd?$AA?$CB?$AA?6?$AA?$AA@ 0003f708     cpumon.obj
 0002:00002750       ??_C@_1EA@JKBOOFDH@?$AAC?$AAe?$AAS?$AAe?$AAt?$AAT?$AAh?$AAr?$AAe?$AAa?$AAd?$AAA?$AAf?$AAf?$AAi?$AAn?$AAi?$AAt?$AAy?$AA?5?$AAn?$AAo?$AAt?$AA?5?$AAf?$AAo?$AAu?$AAn?$AAd?$AA?$CB?$AA?6?$AA?$AA@ 0003f750     cpumon.obj
 0002:0000279c       ??_C@_1BK@GAANKGGA@?$AAi?$AAn?$AAi?$AAt?$AAi?$AAa?$AAl?$AAi?$AAz?$AAe?$AAd?$AA?6?$AA?$AA@ 0003f79c     cpumon.obj
 0002:000027c0       ??_C@_1EA@IIIHLFCH@?$AAi?$AAn?$AAi?$AAt?$AAi?$AAa?$AAl?$AAi?$AAz?$AAi?$AAn?$AAg?$AA?5?$AAr?$AAa?$AAn?$AAd?$AAo?$AAm?$AA?$CD?$AA?5?$AAg?$AAe?$AAn?$AAe?$AAr?$AAa?$AAt?$AAo?$AAr?$AA?6?$AA?$AA@ 0003f7c0     cpumon.obj
 0002:0000280c       ??_C@_1DI@EFDBDFK@?$AAC?$AAe?$AAS?$AAe?$AAt?$AAT?$AAh?$AAr?$AAe?$AAa?$AAd?$AAA?$AAf?$AAf?$AAi?$AAn?$AAi?$AAt?$AAy?$AA?5?$AAf?$AAo?$AAu?$AAn?$AAd?$AA?$CB?$AA?6?$AA?$AA@ 0003f80c     cpumon.obj
 0002:00002850       ??_C@_1EC@NKPCLGBL@?$AAs?$AAt?$AAa?$AAr?$AAt?$AA?5?$AAo?$AAk?$AA?4?$AA?5?$AAC?$AAe?$AAm?$AAo?$AAn?$AA?5?$AAv?$AAe?$AAr?$AAs?$AAi?$AAo?$AAn?$AA?5?$AA?$CF?$AAi?$AA?4?$AA?$CF?$AA0?$AA2?$AAi?$AA?6@ 0003f850     cpumon.obj
 0002:000028a0       ??_C@_1HA@FDAHHHJB@?$AAf?$AAa?$AAi?$AAl?$AAe?$AAd?$AA?5?$AAt?$AAo?$AA?5?$AAa?$AAl?$AAl?$AAo?$AAc?$AAa?$AAt?$AAe?$AA?5?$AA?$CF?$AAi?$AA?5?$AAb?$AAy?$AAt?$AAe?$AAs?$AA?5?$AAo?$AAf?$AA?5?$AAi@ 0003f8a0     cpumon.obj
 0002:00002928       ??_C@_1CE@PDMFPDAA@?$AAw?$AAi?$AAn?$AAs?$AAo?$AAc?$AAk?$AA_?$AAi?$AAn?$AAi?$AAt?$AA?5?$AAo?$AAk?$AA?4?$AA?6?$AA?$AA@ 0003f928     cpumon.obj
 0002:00002954       ??_C@_1DA@FMEKCBD@?$AAs?$AAo?$AAc?$AAk?$AAe?$AAt?$AA_?$AAs?$AAe?$AAr?$AAv?$AAe?$AAr?$AA_?$AAi?$AAn?$AAi?$AAt?$AA?5?$AAo?$AAk?$AA?4?$AA?6?$AA?$AA@ 0003f954     cpumon.obj
 0002:00002990       ??_C@_1HE@BOMJIMCC@?$AAf?$AAa?$AAi?$AAl?$AAe?$AAd?$AA?5?$AAt?$AAo?$AA?5?$AAa?$AAl?$AAl?$AAo?$AAc?$AAa?$AAt?$AAe?$AA?5?$AA?$CF?$AAi?$AA?5?$AAb?$AAy?$AAt?$AAe?$AAs?$AA?5?$AAo?$AAf?$AA?5?$AAs@ 0003f990     cpumon.obj
 0002:00002a20       ??_C@_1HG@PCMNBLAM@?$AAf?$AAa?$AAi?$AAl?$AAe?$AAd?$AA?5?$AAt?$AAo?$AA?5?$AAa?$AAl?$AAl?$AAo?$AAc?$AAa?$AAt?$AAe?$AA?5?$AA?$CF?$AAi?$AA?5?$AAb?$AAy?$AAt?$AAe?$AAs?$AA?5?$AAo?$AAf?$AA?5?$AAs@ 0003fa20     cpumon.obj
 0002:00002ab0       ??_C@_03DOPCBAKB@a?$CLb?$AA@ 0003fab0     cpumon.obj
 0002:00002ab4       ??_C@_17CHOLIMHJ@?$AA1?$AA0?$AA0?$AA?$AA@ 0003fab4     cpumon.obj
 0002:00002ac0       ??_C@_1BA@LANPECLJ@?$AAE?$AAx?$AAi?$AAt?$AAe?$AAd?$AA?6?$AA?$AA@ 0003fac0     cpumon.obj
 0002:00002ad8       ??_C@_1EG@PJHCPOF@?$AAS?$AAy?$AAs?$AAt?$AAe?$AAm?$AA?2?$AAE?$AAr?$AAr?$AAo?$AAr?$AAR?$AAe?$AAp?$AAo?$AAr?$AAt?$AAi?$AAn?$AAg?$AA?2?$AAD?$AAu?$AAm?$AAp?$AAS?$AAe?$AAt?$AAt?$AAi?$AAn@ 0003fad8     debugger.obj
 0002:00002b2c       ??_C@_1DE@KNINEMNF@?$AAR?$AAe?$AAg?$AAO?$AAp?$AAe?$AAn?$AAK?$AAe?$AAy?$AAE?$AAx?$AA?5?$AA?$CC?$AA?$CF?$AAs?$AA?$CC?$AA?5?$AAe?$AAr?$AAr?$AA?3?$AA?$CF?$AAi?$AA?6?$AA?$AA@ 0003fb2c     debugger.obj
 0002:00002b6c       ??_C@_1BM@PMOMDJNA@?$AAD?$AAu?$AAm?$AAp?$AAD?$AAi?$AAr?$AAe?$AAc?$AAt?$AAo?$AAr?$AAy?$AA?$AA@ 0003fb6c     debugger.obj
 0002:00002b90       ??_C@_1EM@FDPIGOIB@?$AAR?$AAe?$AAg?$AAQ?$AAu?$AAe?$AAr?$AAy?$AAV?$AAa?$AAl?$AAu?$AAe?$AAE?$AAx?$AA?5?$AAD?$AAu?$AAm?$AAp?$AAD?$AAi?$AAr?$AAe?$AAc?$AAt?$AAo?$AAr?$AAy?$AA?5?$AAe?$AAr@ 0003fb90     debugger.obj
 0002:00002bf0       ??_C@_1FC@LGGHJIKL@?$AAC?$AAr?$AAe?$AAa?$AAt?$AAe?$AAE?$AAv?$AAe?$AAn?$AAt?$AA?5?$AAg?$AAd?$AAb?$AAg?$AAc?$AAt?$AAx?$AA?4?$AAd?$AAo?$AAn?$AAe?$AA?5?$AAf?$AAa?$AAi?$AAl?$AAe?$AAd?$AA?5@ 0003fbf0     debugger.obj
 0002:00002c58       ??_C@_1FA@KGPHMICH@?$AAC?$AAr?$AAe?$AAa?$AAt?$AAe?$AAE?$AAv?$AAe?$AAn?$AAt?$AA?5?$AAg?$AAd?$AAb?$AAg?$AAc?$AAt?$AAx?$AA?4?$AAa?$AAc?$AAk?$AA?5?$AAf?$AAa?$AAi?$AAl?$AAe?$AAd?$AA?5?$AAe@ 0003fc58     debugger.obj
 0002:00002cb8       ??_C@_1FE@IJCJIENB@?$AAC?$AAr?$AAe?$AAa?$AAt?$AAe?$AAE?$AAv?$AAe?$AAn?$AAt?$AA?5?$AAg?$AAd?$AAb?$AAg?$AAc?$AAt?$AAx?$AA?4?$AAc?$AAr?$AAa?$AAs?$AAh?$AA?5?$AAf?$AAa?$AAi?$AAl?$AAe?$AAd@ 0003fcb8     debugger.obj
 0002:00002d1c       ??_C@_1CC@EEPOGMAL@?$AA0?$AAx?$AA?$CF?$AAx?$AA?7?$AA0?$AAx?$AA?$CF?$AAx?$AA?7?$AA0?$AAx?$AA?$CF?$AAx?$AA?7?$AA?6?$AA?$AA@ 0003fd1c     debugger.obj
 0002:00002d44       ??_C@_1DK@PHJNMOPP@?$AAm?$AAa?$AAl?$AAl?$AAo?$AAc?$AA?5?$AAf?$AAa?$AAi?$AAl?$AAe?$AAd?$AA?5?$AAo?$AAn?$AA?5?$AAC?$AAR?$AAA?$AAS?$AAH?$AA_?$AAI?$AAN?$AAF?$AAO?$AA?6?$AA?$AA@ 0003fd44     debugger.obj
 0002:00002d8c       ??_C@_1DM@BMHIECBM@?$AAm?$AAa?$AAl?$AAl?$AAo?$AAc?$AA?5?$AAf?$AAa?$AAi?$AAl?$AAe?$AAd?$AA?5?$AAo?$AAn?$AA?5?$AAC?$AAR?$AAA?$AAS?$AAH?$AA_?$AAI?$AAN?$AAF?$AAO?$AA?4?$AA?6?$AA?$AA@ 0003fd8c     debugger.obj
 0002:00002dd4       ??_C@_1DE@FNCEJJLM@?$AAS?$AAe?$AAt?$AAE?$AAv?$AAe?$AAn?$AAt?$AA?5?$AAc?$AAr?$AAa?$AAs?$AAh?$AA?5?$AA?$CF?$AAx?$AA?5?$AAe?$AAr?$AAr?$AA?5?$AA?$CF?$AAi?$AA?6?$AA?$AA@ 0003fdd4     debugger.obj
 0002:00002e14       ??_C@_1CK@GFOKFPCI@?$AAE?$AAX?$AAC?$AAE?$AAP?$AAT?$AAI?$AAO?$AAN?$AA_?$AAB?$AAR?$AAE?$AAA?$AAK?$AAP?$AAO?$AAI?$AAN?$AAT?$AA?$AA@ 0003fe14     debugger.obj
 0002:00002e48       ??_C@_1EA@DPJMAOIB@?$AAE?$AAX?$AAC?$AAE?$AAP?$AAT?$AAI?$AAO?$AAN?$AA_?$AAD?$AAA?$AAT?$AAA?$AAT?$AAY?$AAP?$AAE?$AA_?$AAM?$AAI?$AAS?$AAA?$AAL?$AAI?$AAG?$AAN?$AAM?$AAE?$AAN?$AAT?$AA?$AA@ 0003fe48     debugger.obj
 0002:00002e94       ??_C@_1CM@IAIFNOBF@?$AAE?$AAX?$AAC?$AAE?$AAP?$AAT?$AAI?$AAO?$AAN?$AA_?$AAS?$AAI?$AAN?$AAG?$AAL?$AAE?$AA_?$AAS?$AAT?$AAE?$AAP?$AA?$AA@ 0003fe94     debugger.obj
 0002:00002ec8       ??_C@_1DA@LAKALNNI@?$AAE?$AAX?$AAC?$AAE?$AAP?$AAT?$AAI?$AAO?$AAN?$AA_?$AAI?$AAN?$AA_?$AAP?$AAA?$AAG?$AAE?$AA_?$AAE?$AAR?$AAR?$AAO?$AAR?$AA?$AA@ 0003fec8     debugger.obj
 0002:00002f04       ??_C@_1DG@MBKEFPAE@?$AAE?$AAX?$AAC?$AAE?$AAP?$AAT?$AAI?$AAO?$AAN?$AA_?$AAA?$AAC?$AAC?$AAE?$AAS?$AAS?$AA_?$AAV?$AAI?$AAO?$AAL?$AAA?$AAT?$AAI?$AAO?$AAN?$AA?$AA@ 0003ff04     debugger.obj
 0002:00002f44       ??_C@_1DM@JDMIPLGJ@?$AAE?$AAX?$AAC?$AAE?$AAP?$AAT?$AAI?$AAO?$AAN?$AA_?$AAI?$AAL?$AAL?$AAE?$AAG?$AAA?$AAL?$AA_?$AAI?$AAN?$AAS?$AAT?$AAR?$AAU?$AAC?$AAT?$AAI?$AAO?$AAN?$AA?$AA@ 0003ff44     debugger.obj
 0002:00002f8c       ??_C@_1DM@BHMFAFLP@?$AAE?$AAX?$AAC?$AAE?$AAP?$AAT?$AAI?$AAO?$AAN?$AA_?$AAI?$AAN?$AAV?$AAA?$AAL?$AAI?$AAD?$AA_?$AAD?$AAI?$AAS?$AAP?$AAO?$AAS?$AAI?$AAT?$AAI?$AAO?$AAN?$AA?$AA@ 0003ff8c     debugger.obj
 0002:00002fd8       ??_C@_1EG@DMGAABDE@?$AAE?$AAX?$AAC?$AAE?$AAP?$AAT?$AAI?$AAO?$AAN?$AA_?$AAN?$AAO?$AAN?$AAC?$AAO?$AAN?$AAT?$AAI?$AAN?$AAU?$AAA?$AAB?$AAL?$AAE?$AA_?$AAE?$AAX?$AAC?$AAE?$AAP?$AAT?$AAI@ 0003ffd8     debugger.obj
 0002:00003030       ??_C@_1EA@KCJEJHHM@?$AAE?$AAX?$AAC?$AAE?$AAP?$AAT?$AAI?$AAO?$AAN?$AA_?$AAA?$AAR?$AAR?$AAA?$AAY?$AA_?$AAB?$AAO?$AAU?$AAN?$AAD?$AAS?$AA_?$AAE?$AAX?$AAC?$AAE?$AAE?$AAD?$AAE?$AAD?$AA?$AA@ 00040030     debugger.obj
 0002:0000307c       ??_C@_1DO@EGNONNCH@?$AAE?$AAX?$AAC?$AAE?$AAP?$AAT?$AAI?$AAO?$AAN?$AA_?$AAF?$AAL?$AAT?$AA_?$AAD?$AAE?$AAN?$AAO?$AAR?$AAM?$AAA?$AAL?$AA_?$AAO?$AAP?$AAE?$AAR?$AAA?$AAN?$AAD?$AA?$AA@ 0004007c     debugger.obj
 0002:000030c8       ??_C@_1DK@BEFNIBEI@?$AAE?$AAX?$AAC?$AAE?$AAP?$AAT?$AAI?$AAO?$AAN?$AA_?$AAF?$AAL?$AAT?$AA_?$AAD?$AAI?$AAV?$AAI?$AAD?$AAE?$AA_?$AAB?$AAY?$AA_?$AAZ?$AAE?$AAR?$AAO?$AA?$AA@ 000400c8     debugger.obj
 0002:00003110       ??_C@_1DK@JOHFNPA@?$AAE?$AAX?$AAC?$AAE?$AAP?$AAT?$AAI?$AAO?$AAN?$AA_?$AAF?$AAL?$AAT?$AA_?$AAI?$AAN?$AAE?$AAX?$AAA?$AAC?$AAT?$AA_?$AAR?$AAE?$AAS?$AAU?$AAL?$AAT?$AA?$AA@ 00040110     debugger.obj
 0002:00003158       ??_C@_1EA@GFBMCNAN@?$AAE?$AAX?$AAC?$AAE?$AAP?$AAT?$AAI?$AAO?$AAN?$AA_?$AAF?$AAL?$AAT?$AA_?$AAI?$AAN?$AAV?$AAA?$AAL?$AAI?$AAD?$AA_?$AAO?$AAP?$AAE?$AAR?$AAA?$AAT?$AAI?$AAO?$AAN?$AA?$AA@ 00040158     debugger.obj
 0002:000031a4       ??_C@_1CO@INIOBGA@?$AAE?$AAX?$AAC?$AAE?$AAP?$AAT?$AAI?$AAO?$AAN?$AA_?$AAF?$AAL?$AAT?$AA_?$AAO?$AAV?$AAE?$AAR?$AAF?$AAL?$AAO?$AAW?$AA?$AA@ 000401a4     debugger.obj
 0002:000031dc       ??_C@_1DE@PBANJDHK@?$AAE?$AAX?$AAC?$AAE?$AAP?$AAT?$AAI?$AAO?$AAN?$AA_?$AAF?$AAL?$AAT?$AA_?$AAS?$AAT?$AAA?$AAC?$AAK?$AA_?$AAC?$AAH?$AAE?$AAC?$AAK?$AA?$AA@ 000401dc     debugger.obj
 0002:0000321c       ??_C@_1DA@LOCKLJOH@?$AAE?$AAX?$AAC?$AAE?$AAP?$AAT?$AAI?$AAO?$AAN?$AA_?$AAF?$AAL?$AAT?$AA_?$AAU?$AAN?$AAD?$AAE?$AAR?$AAF?$AAL?$AAO?$AAW?$AA?$AA@ 0004021c     debugger.obj
 0002:00003258       ??_C@_1DK@EEPECJJJ@?$AAE?$AAX?$AAC?$AAE?$AAP?$AAT?$AAI?$AAO?$AAN?$AA_?$AAI?$AAN?$AAT?$AA_?$AAD?$AAI?$AAV?$AAI?$AAD?$AAE?$AA_?$AAB?$AAY?$AA_?$AAZ?$AAE?$AAR?$AAO?$AA?$AA@ 00040258     debugger.obj
 0002:000032a0       ??_C@_1CO@FMAJHLPF@?$AAE?$AAX?$AAC?$AAE?$AAP?$AAT?$AAI?$AAO?$AAN?$AA_?$AAI?$AAN?$AAT?$AA_?$AAO?$AAV?$AAE?$AAR?$AAF?$AAL?$AAO?$AAW?$AA?$AA@ 000402a0     debugger.obj
 0002:000032d8       ??_C@_1DG@PNCKAKMD@?$AAE?$AAX?$AAC?$AAE?$AAP?$AAT?$AAI?$AAO?$AAN?$AA_?$AAP?$AAR?$AAI?$AAV?$AA_?$AAI?$AAN?$AAS?$AAT?$AAR?$AAU?$AAC?$AAT?$AAI?$AAO?$AAN?$AA?$AA@ 000402d8     debugger.obj
 0002:00003318       ??_C@_1DC@FCIJDDJO@?$AAE?$AAX?$AAC?$AAE?$AAP?$AAT?$AAI?$AAO?$AAN?$AA_?$AAS?$AAT?$AAA?$AAC?$AAK?$AA_?$AAO?$AAV?$AAE?$AAR?$AAF?$AAL?$AAO?$AAW?$AA?$AA@ 00040318     debugger.obj
 0002:00003354       ??_C@_1BA@LEPJIIOK@?$AAU?$AAn?$AAk?$AAn?$AAo?$AAw?$AAn?$AA?$AA@ 00040354     debugger.obj
 0002:00003368       ??_C@_1KI@BGMDJNBA@?$AA?$CD?$AA?$CD?$AA?$CD?$AA?5?$AA?$CF?$AAi?$AA?5?$AAc?$AAh?$AAa?$AAn?$AAc?$AAe?$AA?5?$AAe?$AAx?$AAc?$AAe?$AAp?$AAt?$AAi?$AAo?$AAn?$AA?5?$AA?$CF?$AAs?$AA?5?$AAa?$AAt?$AA?5?$AAa?$AAd@ 00040368     debugger.obj
 0002:00003438       ??_C@_1FM@JNHMKDOD@?$AAS?$AAt?$AAa?$AAr?$AAt?$AAe?$AAd?$AA?5?$AAp?$AAr?$AAo?$AAc?$AAe?$AAs?$AAs?$AA?3?$AA?5?$AA0?$AAx?$AA?$CF?$AAx?$AA?5?$AA?$FL?$AA?$CF?$AAi?$AA?$FN?$AA?0?$AA?5?$AAd?$AAe?$AAb?$AAu@ 00040438     debugger.obj
 0002:000034a8       ??_C@_1GK@KPOOENNK@?$AAE?$AAx?$AAi?$AAt?$AAe?$AAd?$AA?5?$AAp?$AAr?$AAo?$AAc?$AAe?$AAs?$AAs?$AA?5?$AAw?$AAi?$AAt?$AAh?$AA?5?$AAi?$AAd?$AA?3?$AA?5?$AA0?$AAx?$AA?$CF?$AAx?$AA?5?$AA?$FL?$AA?$CF?$AAi@ 000404a8     debugger.obj
 0002:00003528       ??_C@_1EE@FHAKOAB@?$AAE?$AAx?$AAi?$AAt?$AAe?$AAd?$AA?5?$AAt?$AAh?$AAr?$AAe?$AAa?$AAd?$AA?5?$AAw?$AAi?$AAt?$AAh?$AA?5?$AAi?$AAd?$AA?3?$AA?5?$AA0?$AAx?$AA?$CF?$AAx?$AA?5?$AA?$FL?$AA?$CF?$AAi?$AA?$FN@ 00040528     debugger.obj
 0002:00003580       ??_C@_1GC@BDLLOADH@?$AAW?$AAa?$AAi?$AAt?$AAF?$AAo?$AAr?$AAD?$AAe?$AAb?$AAu?$AAg?$AAE?$AAv?$AAe?$AAn?$AAt?$AA?5?$AAF?$AAA?$AAI?$AAL?$AAE?$AAD?$AA?5?$AAe?$AAr?$AAr?$AA?3?$AA?$CF?$AAi?$AA?5@ 00040580     debugger.obj
 0002:000035f8       ??_C@_1GE@CJFFGJHP@?$AAC?$AAo?$AAn?$AAt?$AAi?$AAn?$AAu?$AAe?$AAD?$AAe?$AAb?$AAu?$AAg?$AAE?$AAv?$AAe?$AAn?$AAt?$AA?5?$AAF?$AAA?$AAI?$AAL?$AAE?$AAD?$AA?5?$AAe?$AAr?$AAr?$AA?3?$AA?$CF?$AAi@ 000405f8     debugger.obj
 0002:00003670       ??_C@_1GC@GEOCJNAF@?$AAf?$AAa?$AAi?$AAl?$AAe?$AAd?$AA?5?$AAt?$AAo?$AA?5?$AAa?$AAt?$AAt?$AAa?$AAc?$AAh?$AA?5?$AAt?$AAo?$AA?5?$AAp?$AAr?$AAo?$AAc?$AAe?$AAs?$AAs?$AA?5?$AAw?$AAi?$AAt?$AAh@ 00040670     debugger.obj
 0002:000036e8       ??_C@_1EO@FCMPJEPN@?$AAf?$AAa?$AAi?$AAl?$AAe?$AAd?$AA?5?$AAt?$AAo?$AA?5?$AAs?$AAt?$AAa?$AAr?$AAt?$AA?5?$AAd?$AAe?$AAb?$AAu?$AAg?$AAe?$AAe?$AA?5?$AA?$CC?$AA?$CF?$AAs?$AA?$CC?$AA?0?$AA?5?$AAe?$AAr@ 000406e8     debugger.obj
 0002:00003748       ??_C@_1DA@PIDFLMCJ@?$AAS?$AAe?$AAt?$AAE?$AAv?$AAe?$AAn?$AAt?$AA?5?$AAa?$AAc?$AAk?$AA?5?$AA?$CF?$AAx?$AA?5?$AAe?$AAr?$AAr?$AA?5?$AA?$CF?$AAi?$AA?6?$AA?$AA@ 00040748     debugger.obj
 0002:00003784       ??_C@_1DO@LBDOCCKK@?$AAD?$AAe?$AAb?$AAu?$AAg?$AAA?$AAc?$AAt?$AAi?$AAv?$AAe?$AAP?$AAr?$AAo?$AAc?$AAe?$AAs?$AAs?$AA?5?$AAw?$AAi?$AAt?$AAh?$AA?5?$AAi?$AAd?$AA?5?$AA?$CF?$AAu?$AA?6?$AA?$AA@ 00040784     debugger.obj
 0002:000037d0       ??_C@_1CI@MKOAGPAI@?$AAC?$AAr?$AAe?$AAa?$AAt?$AAe?$AAP?$AAr?$AAo?$AAc?$AAe?$AAs?$AAs?$AA?5?$AA?$CC?$AA?$CF?$AAs?$AA?$CC?$AA?6?$AA?$AA@ 000407d0     debugger.obj
 0002:00003800       ??_C@_1DC@BMJPEHON@?$AAS?$AAe?$AAt?$AAE?$AAv?$AAe?$AAn?$AAt?$AA?5?$AAd?$AAo?$AAn?$AAe?$AA?5?$AA?$CF?$AAx?$AA?5?$AAe?$AAr?$AAr?$AA?5?$AA?$CF?$AAi?$AA?6?$AA?$AA@ 00040800     debugger.obj
 0002:00003840       ??_C@_1EC@LGMDNKJI@?$AAC?$AAa?$AAn?$AAn?$AAo?$AAt?$AA?5?$AAd?$AAe?$AAb?$AAu?$AAg?$AA?5?$AAa?$AAn?$AAy?$AA?5?$AAm?$AAo?$AAr?$AAe?$AA?5?$AAp?$AAr?$AAo?$AAc?$AAe?$AAs?$AAs?$AAe?$AAs?$AA?6@ 00040840     debugger.obj
 0002:00003890       ??_C@_1EA@CLOFCKMF@?$AAm?$AAa?$AAl?$AAl?$AAo?$AAc?$AA?5?$AAf?$AAa?$AAi?$AAl?$AAe?$AAd?$AA?5?$AAo?$AAn?$AA?5?$AAD?$AAE?$AAB?$AAU?$AAG?$AA_?$AAS?$AAE?$AAS?$AAS?$AAI?$AAO?$AAN?$AA?6?$AA?$AA@ 00040890     debugger.obj
 0002:000038e0       ??_C@_1EI@ENMAAMFP@?$AAm?$AAa?$AAl?$AAl?$AAo?$AAc?$AA?5?$AAf?$AAa?$AAi?$AAl?$AAe?$AAd?$AA?5?$AAo?$AAn?$AA?5?$AAD?$AAE?$AAB?$AAU?$AAG?$AA_?$AAP?$AAR?$AAO?$AAC?$AAE?$AAS?$AAS?$AA_?$AAA@ 000408e0     debugger.obj
 0002:00003938       ??_C@_1FA@FJKPLPIA@?$AAF?$AAa?$AAi?$AAl?$AAe?$AAd?$AA?5?$AAt?$AAo?$AA?5?$AAC?$AAr?$AAe?$AAa?$AAt?$AAe?$AAT?$AAh?$AAr?$AAe?$AAa?$AAd?$AA?5?$AAd?$AAe?$AAb?$AAu?$AAg?$AAe?$AAr?$AA_?$AAp@ 00040938     debugger.obj
 0002:00003998       ??_C@_1GG@CBMIAEFM@?$AAE?$AAr?$AAr?$AAo?$AAr?$AA?5?$AAc?$AAr?$AAe?$AAa?$AAt?$AAi?$AAn?$AAg?$AA?5?$AAU?$AAD?$AAP?$AA?5?$AAd?$AAe?$AAv?$AAi?$AAc?$AAe?$AA?5?$AAd?$AAi?$AAs?$AAc?$AAo?$AAv@ 00040998     DiscoveryServer.obj
 0002:00003a18       ??_C@_1FI@KAALOPDA@?$AAE?$AAr?$AAr?$AAo?$AAr?$AA?5?$AAb?$AAi?$AAn?$AAd?$AAi?$AAn?$AAg?$AA?5?$AAU?$AAD?$AAP?$AA?5?$AAd?$AAi?$AAs?$AAc?$AAo?$AAv?$AAe?$AAr?$AAy?$AA?5?$AAs?$AAo?$AAc?$AAk@ 00040a18     DiscoveryServer.obj
 0002:00003a88       ??_C@_1EG@NBOAGFNM@?$AAd?$AAi?$AAs?$AAc?$AAo?$AAv?$AAe?$AAr?$AAy?$AA?5?$AAs?$AAo?$AAc?$AAk?$AAe?$AAt?$AA?5?$AAb?$AAo?$AAu?$AAn?$AAd?$AA?5?$AAt?$AAo?$AA?5?$AAp?$AAo?$AAr?$AAt?$AA?5?$AA?$CF@ 00040a88     DiscoveryServer.obj
 0002:00003ae0       ??_C@_1FC@CKPLABON@?$AAd?$AAi?$AAs?$AAc?$AAo?$AAv?$AAe?$AAr?$AAy?$AA?5?$AAs?$AAe?$AAr?$AAv?$AAe?$AAr?$AA?5?$AAs?$AAe?$AAr?$AAv?$AAe?$AA?5?$AAr?$AAe?$AAc?$AAv?$AAf?$AAr?$AAo?$AAm?$AA?5@ 00040ae0     DiscoveryServer.obj
 0002:00003b48       ??_C@_1FI@FLBFICLB@?$AAe?$AAr?$AAr?$AAo?$AAr?$AA?5?$AAs?$AAe?$AAn?$AAd?$AAi?$AAn?$AAg?$AA?5?$AAU?$AAD?$AAP?$AA?5?$AAd?$AAi?$AAs?$AAc?$AAo?$AAv?$AAe?$AAr?$AAy?$AA?5?$AAp?$AAa?$AAc?$AAk@ 00040b48     DiscoveryServer.obj
 0002:00003bb4       _FPinit                    00040bb4     LIBCMT:fpinit.obj
 0002:00003bb8       ?ProcessDetach@NativeDll@<CrtImplementationDetails>@@0IB 00040bb8     LIBCMT:tolower.obj
 0002:00003bbc       ?ProcessAttach@NativeDll@<CrtImplementationDetails>@@0IB 00040bbc     LIBCMT:tolower.obj
 0002:00003bc0       ?ThreadAttach@NativeDll@<CrtImplementationDetails>@@0IB 00040bc0     LIBCMT:tolower.obj
 0002:00003bc4       ?ThreadDetach@NativeDll@<CrtImplementationDetails>@@0IB 00040bc4     LIBCMT:tolower.obj
 0002:00003bc8       ?ProcessVerifier@NativeDll@<CrtImplementationDetails>@@0IB 00040bc8     LIBCMT:tolower.obj
 0002:00003d20       __dnames                   00040d20     LIBCMT:timeset.obj
 0002:00003d38       __mnames                   00040d38     LIBCMT:timeset.obj
 0002:00003d60       ??_C@_05KLBDPFGC@e?$CL000?$AA@ 00040d60     LIBCMT:cvt.obj
 0002:00003d68       ??_C@_1M@HPNHIDJI@?$AAj?$AAa?$AA?9?$AAJ?$AAP?$AA?$AA@ 00040d68     LIBCMT:mbctype.obj
 0002:00003d74       ??_C@_1M@BIBDDEMK@?$AAz?$AAh?$AA?9?$AAC?$AAN?$AA?$AA@ 00040d74     LIBCMT:mbctype.obj
 0002:00003d80       ??_C@_1M@JLOOOEGK@?$AAk?$AAo?$AA?9?$AAK?$AAR?$AA?$AA@ 00040d80     LIBCMT:mbctype.obj
 0002:00003d8c       ??_C@_1M@CLNBBOPM@?$AAz?$AAh?$AA?9?$AAT?$AAW?$AA?$AA@ 00040d8c     LIBCMT:mbctype.obj
 0002:00003da8       ??_C@_1O@GIFLHMA@?$AAL?$AAC?$AA_?$AAA?$AAL?$AAL?$AA?$AA@ 00040da8     LIBCMT:wsetloca.obj
 0002:00003db8       ??_C@_1BG@PPOMIBNJ@?$AAL?$AAC?$AA_?$AAC?$AAO?$AAL?$AAL?$AAA?$AAT?$AAE?$AA?$AA@ 00040db8     LIBCMT:wsetloca.obj
 0002:00003dd0       ??_C@_1BC@FFJGAPJM@?$AAL?$AAC?$AA_?$AAC?$AAT?$AAY?$AAP?$AAE?$AA?$AA@ 00040dd0     LIBCMT:wsetloca.obj
 0002:00003de4       ??_C@_1BI@PCKFNJFB@?$AAL?$AAC?$AA_?$AAM?$AAO?$AAN?$AAE?$AAT?$AAA?$AAR?$AAY?$AA?$AA@ 00040de4     LIBCMT:wsetloca.obj
 0002:00003dfc       ??_C@_1BG@ENIEDKID@?$AAL?$AAC?$AA_?$AAN?$AAU?$AAM?$AAE?$AAR?$AAI?$AAC?$AA?$AA@ 00040dfc     LIBCMT:wsetloca.obj
 0002:00003e14       ??_C@_1BA@HAAOMIIG@?$AAL?$AAC?$AA_?$AAT?$AAI?$AAM?$AAE?$AA?$AA@ 00040e14     LIBCMT:wsetloca.obj
 0002:00003e28       __lc_category              00040e28     LIBCMT:wsetloca.obj
 0002:00003ef0       ??_C@_17MBJJLFDM@?$AA_?$AA?4?$AA?0?$AA?$AA@ 00040ef0     LIBCMT:wsetloca.obj
 0002:00003ef8       ??_C@_13NMPKAAJP@?$AA?$DN?$AA?$AA@ 00040ef8     LIBCMT:wsetloca.obj
 0002:00003efc       ??_C@_13PJJBFPED@?$AA?$DL?$AA?$AA@ 00040efc     LIBCMT:wsetloca.obj
 0002:00003f00       ??_C@_13ENNFDPBH@?$AA_?$AA?$AA@ 00040f00     LIBCMT:wsetloca.obj
 0002:00003f04       ??_C@_13JOFGPIOO@?$AA?4?$AA?$AA@ 00040f04     LIBCMT:wsetloca.obj
 0002:00003f08       ??_C@_13FHBKNHDA@?$AAC?$AA?$AA@ 00040f08     LIBCMT:wsetloca.obj
 0002:00003f0c       ??_C@_15NBPDDFIP@?$AA?$DN?$AA?$DL?$AA?$AA@ 00040f0c     LIBCMT:wsetloca.obj
 0002:00004390       ??_C@_03MGHMBJCF@log?$AA@  00041390     LIBCMT:log.obj
 0002:00004394       ??_C@_03KHJOGHMM@exp?$AA@  00041394     LIBCMT:fpexcept.obj
 0002:00004398       ??_C@_03JGHBODFD@pow?$AA@  00041398     LIBCMT:fpexcept.obj
 0002:0000439c       ??_C@_05HGHHAHAP@log10?$AA@ 0004139c     LIBCMT:fpexcept.obj
 0002:000043a4       ??_C@_04COOMCNPB@sinh?$AA@ 000413a4     LIBCMT:fpexcept.obj
 0002:000043ac       ??_C@_04HPJJNFIM@cosh?$AA@ 000413ac     LIBCMT:fpexcept.obj
 0002:000043b4       ??_C@_04FJHINJAO@tanh?$AA@ 000413b4     LIBCMT:fpexcept.obj
 0002:000043bc       ??_C@_04FIHNOPOL@asin?$AA@ 000413bc     LIBCMT:fpexcept.obj
 0002:000043c4       ??_C@_04PDIFKINK@acos?$AA@ 000413c4     LIBCMT:fpexcept.obj
 0002:000043cc       ??_C@_04MLLJIGOK@atan?$AA@ 000413cc     LIBCMT:fpexcept.obj
 0002:000043d4       ??_C@_05KNGEOGJB@atan2?$AA@ 000413d4     LIBCMT:fpexcept.obj
 0002:000043dc       ??_C@_04EIAKFFMI@sqrt?$AA@ 000413dc     LIBCMT:fpexcept.obj
 0002:000043e4       ??_C@_03BLEJJJBH@sin?$AA@  000413e4     LIBCMT:fpexcept.obj
 0002:000043e8       ??_C@_03LALBNOCG@cos?$AA@  000413e8     LIBCMT:fpexcept.obj
 0002:000043ec       ??_C@_03IIINPABG@tan?$AA@  000413ec     LIBCMT:fpexcept.obj
 0002:000043f0       ??_C@_04GFPJNGEK@ceil?$AA@ 000413f0     LIBCMT:fpexcept.obj
 0002:000043f8       ??_C@_05PBJFFIGL@floor?$AA@ 000413f8     LIBCMT:fpexcept.obj
 0002:00004400       ??_C@_04ODHECPBC@fabs?$AA@ 00041400     LIBCMT:fpexcept.obj
 0002:00004408       ??_C@_04EHEDPDJG@modf?$AA@ 00041408     LIBCMT:fpexcept.obj
 0002:00004410       ??_C@_05CEJMAHNP@ldexp?$AA@ 00041410     LIBCMT:fpexcept.obj
 0002:00004418       ??_C@_05KBKMEMPO@_cabs?$AA@ 00041418     LIBCMT:fpexcept.obj
 0002:00004420       ??_C@_06MEIMCGCF@_hypot?$AA@ 00041420     LIBCMT:fpexcept.obj
 0002:00004428       ??_C@_04KEPJIHGP@fmod?$AA@ 00041428     LIBCMT:fpexcept.obj
 0002:00004430       ??_C@_05GKKHEGJL@frexp?$AA@ 00041430     LIBCMT:fpexcept.obj
 0002:00004438       ??_C@_03MJLDFKDL@_y0?$AA@  00041438     LIBCMT:fpexcept.obj
 0002:0000443c       ??_C@_03NAKIGLHK@_y1?$AA@  0004143c     LIBCMT:fpexcept.obj
 0002:00004440       ??_C@_03ONILCKOB@_yn?$AA@  00041440     LIBCMT:fpexcept.obj
 0002:00004444       ??_C@_05JGDBENOH@_logb?$AA@ 00041444     LIBCMT:fpexcept.obj
 0002:0000444c       ??_C@_0L@KDOEJCKC@_nextafter?$AA@ 0004144c     LIBCMT:fpexcept.obj
 0002:00004478       ??_C@_06OJHGLDPL@?$CInull?$CJ?$AA@ 00041478     LIBCMT:output.obj
 0002:00004480       ??_C@_1O@CEDCILHN@?$AA?$CI?$AAn?$AAu?$AAl?$AAl?$AA?$CJ?$AA?$AA@ 00041480     LIBCMT:output.obj
 0002:00004490       __lookuptable              00041490     LIBCMT:output.obj
 0002:000044f0       ??_C@_1FK@PGACCAFB@?$AAR?$AA6?$AA0?$AA0?$AA2?$AA?$AN?$AA?6?$AA?9?$AA?5?$AAf?$AAl?$AAo?$AAa?$AAt?$AAi?$AAn?$AAg?$AA?5?$AAp?$AAo?$AAi?$AAn?$AAt?$AA?5?$AAs?$AAu?$AAp?$AAp?$AAo?$AAr?$AAt?$AA?5@ 000414f0     LIBCMT:crt0msg.obj
 0002:00004550       ??_C@_1FE@LLNEDJMD@?$AAR?$AA6?$AA0?$AA0?$AA8?$AA?$AN?$AA?6?$AA?9?$AA?5?$AAn?$AAo?$AAt?$AA?5?$AAe?$AAn?$AAo?$AAu?$AAg?$AAh?$AA?5?$AAs?$AAp?$AAa?$AAc?$AAe?$AA?5?$AAf?$AAo?$AAr?$AA?5?$AAa?$AAr@ 00041550     LIBCMT:crt0msg.obj
 0002:000045a8       ??_C@_1FI@HONFMGBI@?$AAR?$AA6?$AA0?$AA0?$AA9?$AA?$AN?$AA?6?$AA?9?$AA?5?$AAn?$AAo?$AAt?$AA?5?$AAe?$AAn?$AAo?$AAu?$AAg?$AAh?$AA?5?$AAs?$AAp?$AAa?$AAc?$AAe?$AA?5?$AAf?$AAo?$AAr?$AA?5?$AAe?$AAn@ 000415a8     LIBCMT:crt0msg.obj
 0002:00004600       ??_C@_1EG@BEHAGFJD@?$AAR?$AA6?$AA0?$AA1?$AA0?$AA?$AN?$AA?6?$AA?9?$AA?5?$AAa?$AAb?$AAo?$AAr?$AAt?$AA?$CI?$AA?$CJ?$AA?5?$AAh?$AAa?$AAs?$AA?5?$AAb?$AAe?$AAe?$AAn?$AA?5?$AAc?$AAa?$AAl?$AAl?$AAe?$AAd@ 00041600     LIBCMT:crt0msg.obj
 0002:00004648       ??_C@_1FI@LOGNIKDM@?$AAR?$AA6?$AA0?$AA1?$AA6?$AA?$AN?$AA?6?$AA?9?$AA?5?$AAn?$AAo?$AAt?$AA?5?$AAe?$AAn?$AAo?$AAu?$AAg?$AAh?$AA?5?$AAs?$AAp?$AAa?$AAc?$AAe?$AA?5?$AAf?$AAo?$AAr?$AA?5?$AAt?$AAh@ 00041648     LIBCMT:crt0msg.obj
 0002:000046a0       ??_C@_1FK@BEOGODMC@?$AAR?$AA6?$AA0?$AA1?$AA7?$AA?$AN?$AA?6?$AA?9?$AA?5?$AAu?$AAn?$AAe?$AAx?$AAp?$AAe?$AAc?$AAt?$AAe?$AAd?$AA?5?$AAm?$AAu?$AAl?$AAt?$AAi?$AAt?$AAh?$AAr?$AAe?$AAa?$AAd?$AA?5@ 000416a0     LIBCMT:crt0msg.obj
 0002:00004700       ??_C@_1EC@JIBHAOPH@?$AAR?$AA6?$AA0?$AA1?$AA8?$AA?$AN?$AA?6?$AA?9?$AA?5?$AAu?$AAn?$AAe?$AAx?$AAp?$AAe?$AAc?$AAt?$AAe?$AAd?$AA?5?$AAh?$AAe?$AAa?$AAp?$AA?5?$AAe?$AAr?$AAr?$AAo?$AAr?$AA?$AN?$AA?6@ 00041700     LIBCMT:crt0msg.obj
 0002:00004748       ??_C@_1FC@ECHBIFBC@?$AAR?$AA6?$AA0?$AA1?$AA9?$AA?$AN?$AA?6?$AA?9?$AA?5?$AAu?$AAn?$AAa?$AAb?$AAl?$AAe?$AA?5?$AAt?$AAo?$AA?5?$AAo?$AAp?$AAe?$AAn?$AA?5?$AAc?$AAo?$AAn?$AAs?$AAo?$AAl?$AAe?$AA?5@ 00041748     LIBCMT:crt0msg.obj
 0002:000047a0       ??_C@_1GK@FHCKBEFA@?$AAR?$AA6?$AA0?$AA2?$AA4?$AA?$AN?$AA?6?$AA?9?$AA?5?$AAn?$AAo?$AAt?$AA?5?$AAe?$AAn?$AAo?$AAu?$AAg?$AAh?$AA?5?$AAs?$AAp?$AAa?$AAc?$AAe?$AA?5?$AAf?$AAo?$AAr?$AA?5?$AA_?$AAo@ 000417a0     LIBCMT:crt0msg.obj
 0002:00004810       ??_C@_1EM@MAADIHMB@?$AAR?$AA6?$AA0?$AA2?$AA5?$AA?$AN?$AA?6?$AA?9?$AA?5?$AAp?$AAu?$AAr?$AAe?$AA?5?$AAv?$AAi?$AAr?$AAt?$AAu?$AAa?$AAl?$AA?5?$AAf?$AAu?$AAn?$AAc?$AAt?$AAi?$AAo?$AAn?$AA?5?$AAc@ 00041810     LIBCMT:crt0msg.obj
 0002:00004860       ??_C@_1GK@MCAAGJMO@?$AAR?$AA6?$AA0?$AA2?$AA6?$AA?$AN?$AA?6?$AA?9?$AA?5?$AAn?$AAo?$AAt?$AA?5?$AAe?$AAn?$AAo?$AAu?$AAg?$AAh?$AA?5?$AAs?$AAp?$AAa?$AAc?$AAe?$AA?5?$AAf?$AAo?$AAr?$AA?5?$AAs?$AAt@ 00041860     LIBCMT:crt0msg.obj
 0002:000048d0       ??_C@_1GK@MFGOKLAG@?$AAR?$AA6?$AA0?$AA2?$AA7?$AA?$AN?$AA?6?$AA?9?$AA?5?$AAn?$AAo?$AAt?$AA?5?$AAe?$AAn?$AAo?$AAu?$AAg?$AAh?$AA?5?$AAs?$AAp?$AAa?$AAc?$AAe?$AA?5?$AAf?$AAo?$AAr?$AA?5?$AAl?$AAo@ 000418d0     LIBCMT:crt0msg.obj
 0002:00004940       ??_C@_1EK@HHFLMAOL@?$AAR?$AA6?$AA0?$AA2?$AA8?$AA?$AN?$AA?6?$AA?9?$AA?5?$AAu?$AAn?$AAa?$AAb?$AAl?$AAe?$AA?5?$AAt?$AAo?$AA?5?$AAi?$AAn?$AAi?$AAt?$AAi?$AAa?$AAl?$AAi?$AAz?$AAe?$AA?5?$AAh?$AAe@ 00041940     LIBCMT:crt0msg.obj
 0002:0000498c       ??_C@_1DO@BMFCDCD@?$AAR?$AA6?$AA0?$AA3?$AA0?$AA?$AN?$AA?6?$AA?9?$AA?5?$AAC?$AAR?$AAT?$AA?5?$AAn?$AAo?$AAt?$AA?5?$AAi?$AAn?$AAi?$AAt?$AAi?$AAa?$AAl?$AAi?$AAz?$AAe?$AAd?$AA?$AN?$AA?6?$AA?$AA@ 0004198c     LIBCMT:crt0msg.obj
 0002:000049d0       ??_C@_1MG@ENCOOIDF@?$AAR?$AA6?$AA0?$AA3?$AA1?$AA?$AN?$AA?6?$AA?9?$AA?5?$AAA?$AAt?$AAt?$AAe?$AAm?$AAp?$AAt?$AA?5?$AAt?$AAo?$AA?5?$AAi?$AAn?$AAi?$AAt?$AAi?$AAa?$AAl?$AAi?$AAz?$AAe?$AA?5?$AAt@ 000419d0     LIBCMT:crt0msg.obj
 0002:00004a98       ??_C@_1GG@GOPILAJP@?$AAR?$AA6?$AA0?$AA3?$AA2?$AA?$AN?$AA?6?$AA?9?$AA?5?$AAn?$AAo?$AAt?$AA?5?$AAe?$AAn?$AAo?$AAu?$AAg?$AAh?$AA?5?$AAs?$AAp?$AAa?$AAc?$AAe?$AA?5?$AAf?$AAo?$AAr?$AA?5?$AAl?$AAo@ 00041a98     LIBCMT:crt0msg.obj
 0002:00004b00       ??_C@_1BOO@KGEDBGAJ@?$AAR?$AA6?$AA0?$AA3?$AA3?$AA?$AN?$AA?6?$AA?9?$AA?5?$AAA?$AAt?$AAt?$AAe?$AAm?$AAp?$AAt?$AA?5?$AAt?$AAo?$AA?5?$AAu?$AAs?$AAe?$AA?5?$AAM?$AAS?$AAI?$AAL?$AA?5?$AAc?$AAo?$AAd@ 00041b00     LIBCMT:crt0msg.obj
 0002:00004cf0       ??_C@_1GG@MKFPEKFO@?$AAR?$AA6?$AA0?$AA3?$AA4?$AA?$AN?$AA?6?$AA?9?$AA?5?$AAi?$AAn?$AAc?$AAo?$AAn?$AAs?$AAi?$AAs?$AAt?$AAe?$AAn?$AAt?$AA?5?$AAo?$AAn?$AAe?$AAx?$AAi?$AAt?$AA?5?$AAb?$AAe?$AAg@ 00041cf0     LIBCMT:crt0msg.obj
 0002:00004d58       ??_C@_1BO@BFCDCGC@?$AAD?$AAO?$AAM?$AAA?$AAI?$AAN?$AA?5?$AAe?$AAr?$AAr?$AAo?$AAr?$AA?$AN?$AA?6?$AA?$AA@ 00041d58     LIBCMT:crt0msg.obj
 0002:00004d78       ??_C@_1BK@KMOMNAAI@?$AAS?$AAI?$AAN?$AAG?$AA?5?$AAe?$AAr?$AAr?$AAo?$AAr?$AA?$AN?$AA?6?$AA?$AA@ 00041d78     LIBCMT:crt0msg.obj
 0002:00004d94       ??_C@_1BM@JBBEPPHI@?$AAT?$AAL?$AAO?$AAS?$AAS?$AA?5?$AAe?$AAr?$AAr?$AAo?$AAr?$AA?$AN?$AA?6?$AA?$AA@ 00041d94     LIBCMT:crt0msg.obj
 0002:00004db0       ??_C@_15JNBOKNOG@?$AA?$AN?$AA?6?$AA?$AA@ 00041db0     LIBCMT:crt0msg.obj
 0002:00004db8       ??_C@_1BO@BKOMIGKJ@?$AAr?$AAu?$AAn?$AAt?$AAi?$AAm?$AAe?$AA?5?$AAe?$AAr?$AAr?$AAo?$AAr?$AA?5?$AA?$AA@ 00041db8     LIBCMT:crt0msg.obj
 0002:00004e90       ??_C@_1DE@JNGNBFGO@?$AAR?$AAu?$AAn?$AAt?$AAi?$AAm?$AAe?$AA?5?$AAE?$AAr?$AAr?$AAo?$AAr?$AA?$CB?$AA?6?$AA?6?$AAP?$AAr?$AAo?$AAg?$AAr?$AAa?$AAm?$AA?3?$AA?5?$AA?$AA@ 00041e90     LIBCMT:crt0msg.obj
 0002:00004ec4       ??_C@_1CO@EAEJAADC@?$AA?$DM?$AAp?$AAr?$AAo?$AAg?$AAr?$AAa?$AAm?$AA?5?$AAn?$AAa?$AAm?$AAe?$AA?5?$AAu?$AAn?$AAk?$AAn?$AAo?$AAw?$AAn?$AA?$DO?$AA?$AA@ 00041ec4     LIBCMT:crt0msg.obj
 0002:00004ef4       ??_C@_17LGKOMLJ@?$AA?4?$AA?4?$AA?4?$AA?$AA@ 00041ef4     LIBCMT:crt0msg.obj
 0002:00004efc       ??_C@_15IABLJNFO@?$AA?6?$AA?6?$AA?$AA@ 00041efc     LIBCMT:crt0msg.obj
 0002:00004f08       ??_C@_1EK@MBDPDCGA@?$AAM?$AAi?$AAc?$AAr?$AAo?$AAs?$AAo?$AAf?$AAt?$AA?5?$AAV?$AAi?$AAs?$AAu?$AAa?$AAl?$AA?5?$AAC?$AA?$CL?$AA?$CL?$AA?5?$AAR?$AAu?$AAn?$AAt?$AAi?$AAm?$AAe?$AA?5?$AAL?$AAi?$AAb@ 00041f08     LIBCMT:crt0msg.obj
 0002:00004f54       ??_C@_03KOEHGMDN@Sun?$AA@  00041f54     LIBCMT:nlsdata.obj
 0002:00004f58       ??_C@_03PDAGKDH@Mon?$AA@   00041f58     LIBCMT:nlsdata.obj
 0002:00004f5c       ??_C@_03NAGEINEP@Tue?$AA@  00041f5c     LIBCMT:nlsdata.obj
 0002:00004f60       ??_C@_03MHOMLAJA@Wed?$AA@  00041f60     LIBCMT:nlsdata.obj
 0002:00004f64       ??_C@_03IOFIKPDN@Thu?$AA@  00041f64     LIBCMT:nlsdata.obj
 0002:00004f68       ??_C@_03IDIOELNC@Fri?$AA@  00041f68     LIBCMT:nlsdata.obj
 0002:00004f6c       ??_C@_03FEFJNEK@Sat?$AA@   00041f6c     LIBCMT:nlsdata.obj
 0002:00004f70       ??_C@_06OOPIFAJ@Sunday?$AA@ 00041f70     LIBCMT:nlsdata.obj
 0002:00004f78       ??_C@_06JLEDEDGH@Monday?$AA@ 00041f78     LIBCMT:nlsdata.obj
 0002:00004f80       ??_C@_07BAAGCFCM@Tuesday?$AA@ 00041f80     LIBCMT:nlsdata.obj
 0002:00004f88       ??_C@_09DLIGFAKA@Wednesday?$AA@ 00041f88     LIBCMT:nlsdata.obj
 0002:00004f94       ??_C@_08HACCIKIA@Thursday?$AA@ 00041f94     LIBCMT:nlsdata.obj
 0002:00004fa0       ??_C@_06JECMNKMI@Friday?$AA@ 00041fa0     LIBCMT:nlsdata.obj
 0002:00004fa8       ??_C@_08INBOOONO@Saturday?$AA@ 00041fa8     LIBCMT:nlsdata.obj
 0002:00004fb4       ??_C@_03JIHJHPIE@Jan?$AA@  00041fb4     LIBCMT:nlsdata.obj
 0002:00004fb8       ??_C@_03HJBDCHOM@Feb?$AA@  00041fb8     LIBCMT:nlsdata.obj
 0002:00004fbc       ??_C@_03ODNJBKGA@Mar?$AA@  00041fbc     LIBCMT:nlsdata.obj
 0002:00004fc0       ??_C@_03LEOLGMJP@Apr?$AA@  00041fc0     LIBCMT:nlsdata.obj
 0002:00004fc4       ??_C@_03CNMDKL@May?$AA@    00041fc4     LIBCMT:nlsdata.obj
 0002:00004fc8       ??_C@_03IDFGHECI@Jun?$AA@  00041fc8     LIBCMT:nlsdata.obj
 0002:00004fcc       ??_C@_03LBGABGKK@Jul?$AA@  00041fcc     LIBCMT:nlsdata.obj
 0002:00004fd0       ??_C@_03IFJFEIGA@Aug?$AA@  00041fd0     LIBCMT:nlsdata.obj
 0002:00004fd4       ??_C@_03GGCAPAJC@Sep?$AA@  00041fd4     LIBCMT:nlsdata.obj
 0002:00004fd8       ??_C@_03BMAOKBAD@Oct?$AA@  00041fd8     LIBCMT:nlsdata.obj
 0002:00004fdc       ??_C@_03JPJOFNIA@Nov?$AA@  00041fdc     LIBCMT:nlsdata.obj
 0002:00004fe0       ??_C@_03MKABNOCG@Dec?$AA@  00041fe0     LIBCMT:nlsdata.obj
 0002:00004fe4       ??_C@_07CGJPFGJA@January?$AA@ 00041fe4     LIBCMT:nlsdata.obj
 0002:00004fec       ??_C@_08GNJGEPFN@February?$AA@ 00041fec     LIBCMT:nlsdata.obj
 0002:00004ff8       ??_C@_05HPCKOFNC@March?$AA@ 00041ff8     LIBCMT:nlsdata.obj
 0002:00005000       ??_C@_05DMJDNLEJ@April?$AA@ 00042000     LIBCMT:nlsdata.obj
 0002:00005008       ??_C@_04CNLMGBGM@June?$AA@ 00042008     LIBCMT:nlsdata.obj
 0002:00005010       ??_C@_04MIEPOIFP@July?$AA@ 00042010     LIBCMT:nlsdata.obj
 0002:00005018       ??_C@_06LBBHFDDG@August?$AA@ 00042018     LIBCMT:nlsdata.obj
 0002:00005020       ??_C@_09BHHEALKD@September?$AA@ 00042020     LIBCMT:nlsdata.obj
 0002:0000502c       ??_C@_07JJNFCEND@October?$AA@ 0004202c     LIBCMT:nlsdata.obj
 0002:00005034       ??_C@_08HCHEGEOA@November?$AA@ 00042034     LIBCMT:nlsdata.obj
 0002:00005040       ??_C@_08EDHMEBNP@December?$AA@ 00042040     LIBCMT:nlsdata.obj
 0002:0000504c       ??_C@_02DEDBPAFC@AM?$AA@   0004204c     LIBCMT:nlsdata.obj
 0002:00005050       ??_C@_02CJNFDJBF@PM?$AA@   00042050     LIBCMT:nlsdata.obj
 0002:00005054       ??_C@_08BPBNCDIB@MM?1dd?1yy?$AA@ 00042054     LIBCMT:nlsdata.obj
 0002:00005060       ??_C@_0BE@CKGJFCPC@dddd?0?5MMMM?5dd?0?5yyyy?$AA@ 00042060     LIBCMT:nlsdata.obj
 0002:00005074       ??_C@_08JCCMCCIL@HH?3mm?3ss?$AA@ 00042074     LIBCMT:nlsdata.obj
 0002:00005080       ??_C@_17MBGCMIPB@?$AAS?$AAu?$AAn?$AA?$AA@ 00042080     LIBCMT:nlsdata.obj
 0002:00005088       ??_C@_17KBOMKBF@?$AAM?$AAo?$AAn?$AA?$AA@ 00042088     LIBCMT:nlsdata.obj
 0002:00005090       ??_C@_17BMKGEGOJ@?$AAT?$AAu?$AAe?$AA?$AA@ 00042090     LIBCMT:nlsdata.obj
 0002:00005098       ??_C@_17CJEDCEPE@?$AAW?$AAe?$AAd?$AA?$AA@ 00042098     LIBCMT:nlsdata.obj
 0002:000050a0       ??_C@_17PDPHAADD@?$AAT?$AAh?$AAu?$AA?$AA@ 000420a0     LIBCMT:nlsdata.obj
 0002:000050a8       ??_C@_17HFOLPPLP@?$AAF?$AAr?$AAi?$AA?$AA@ 000420a8     LIBCMT:nlsdata.obj
 0002:000050b0       ??_C@_17GGIBDPIH@?$AAS?$AAa?$AAt?$AA?$AA@ 000420b0     LIBCMT:nlsdata.obj
 0002:000050b8       ??_C@_1O@IHNHDHPB@?$AAS?$AAu?$AAn?$AAd?$AAa?$AAy?$AA?$AA@ 000420b8     LIBCMT:nlsdata.obj
 0002:000050c8       ??_C@_1O@MMNBFLIA@?$AAM?$AAo?$AAn?$AAd?$AAa?$AAy?$AA?$AA@ 000420c8     LIBCMT:nlsdata.obj
 0002:000050d8       ??_C@_1BA@ENFBFFEK@?$AAT?$AAu?$AAe?$AAs?$AAd?$AAa?$AAy?$AA?$AA@ 000420d8     LIBCMT:nlsdata.obj
 0002:000050e8       ??_C@_1BE@EBOGMDOH@?$AAW?$AAe?$AAd?$AAn?$AAe?$AAs?$AAd?$AAa?$AAy?$AA?$AA@ 000420e8     LIBCMT:nlsdata.obj
 0002:000050fc       ??_C@_1BC@HHMNLIHE@?$AAT?$AAh?$AAu?$AAr?$AAs?$AAd?$AAa?$AAy?$AA?$AA@ 000420fc     LIBCMT:nlsdata.obj
 0002:00005110       ??_C@_1O@PDICJHAG@?$AAF?$AAr?$AAi?$AAd?$AAa?$AAy?$AA?$AA@ 00042110     LIBCMT:nlsdata.obj
 0002:00005120       ??_C@_1BC@ENMNNPAJ@?$AAS?$AAa?$AAt?$AAu?$AAr?$AAd?$AAa?$AAy?$AA?$AA@ 00042120     LIBCMT:nlsdata.obj
 0002:00005134       ??_C@_17DKNBKCHM@?$AAJ?$AAa?$AAn?$AA?$AA@ 00042134     LIBCMT:nlsdata.obj
 0002:0000513c       ??_C@_17LMDJEKJN@?$AAF?$AAe?$AAb?$AA?$AA@ 0004213c     LIBCMT:nlsdata.obj
 0002:00005144       ??_C@_17CKNLEDEC@?$AAM?$AAa?$AAr?$AA?$AA@ 00042144     LIBCMT:nlsdata.obj
 0002:0000514c       ??_C@_17LFPOIHDD@?$AAA?$AAp?$AAr?$AA?$AA@ 0004214c     LIBCMT:nlsdata.obj
 0002:00005154       ??_C@_17PNNKMEED@?$AAM?$AAa?$AAy?$AA?$AA@ 00042154     LIBCMT:nlsdata.obj
 0002:0000515c       ??_C@_17KCJGOCPB@?$AAJ?$AAu?$AAn?$AA?$AA@ 0004215c     LIBCMT:nlsdata.obj
 0002:00005164       ??_C@_17IJPCKHK@?$AAJ?$AAu?$AAl?$AA?$AA@ 00042164     LIBCMT:nlsdata.obj
 0002:0000516c       ??_C@_17ICPELBCN@?$AAA?$AAu?$AAg?$AA?$AA@ 0004216c     LIBCMT:nlsdata.obj
 0002:00005174       ??_C@_17HCHCOKMG@?$AAS?$AAe?$AAp?$AA?$AA@ 00042174     LIBCMT:nlsdata.obj
 0002:0000517c       ??_C@_17FNLKOI@?$AAO?$AAc?$AAt?$AA?$AA@ 0004217c     LIBCMT:nlsdata.obj
 0002:00005184       ??_C@_17BBDMLCIG@?$AAN?$AAo?$AAv?$AA?$AA@ 00042184     LIBCMT:nlsdata.obj
 0002:0000518c       ??_C@_17EGKACKIF@?$AAD?$AAe?$AAc?$AA?$AA@ 0004218c     LIBCMT:nlsdata.obj
 0002:00005194       ??_C@_1BA@EFMEIEBA@?$AAJ?$AAa?$AAn?$AAu?$AAa?$AAr?$AAy?$AA?$AA@ 00042194     LIBCMT:nlsdata.obj
 0002:000051a4       ??_C@_1BC@JGDDFFAM@?$AAF?$AAe?$AAb?$AAr?$AAu?$AAa?$AAr?$AAy?$AA?$AA@ 000421a4     LIBCMT:nlsdata.obj
 0002:000051b8       ??_C@_1M@IKEENEDF@?$AAM?$AAa?$AAr?$AAc?$AAh?$AA?$AA@ 000421b8     LIBCMT:nlsdata.obj
 0002:000051c4       ??_C@_1M@GJNLMHFD@?$AAA?$AAp?$AAr?$AAi?$AAl?$AA?$AA@ 000421c4     LIBCMT:nlsdata.obj
 0002:000051d0       ??_C@_19EPFLPGAP@?$AAJ?$AAu?$AAn?$AAe?$AA?$AA@ 000421d0     LIBCMT:nlsdata.obj
 0002:000051dc       ??_C@_19BIFMLPCD@?$AAJ?$AAu?$AAl?$AAy?$AA?$AA@ 000421dc     LIBCMT:nlsdata.obj
 0002:000051e8       ??_C@_1O@PAHLKOAC@?$AAA?$AAu?$AAg?$AAu?$AAs?$AAt?$AA?$AA@ 000421e8     LIBCMT:nlsdata.obj
 0002:000051f8       ??_C@_1BE@DKAAMBJL@?$AAS?$AAe?$AAp?$AAt?$AAe?$AAm?$AAb?$AAe?$AAr?$AA?$AA@ 000421f8     LIBCMT:nlsdata.obj
 0002:0000520c       ??_C@_1BA@EPANDLNG@?$AAO?$AAc?$AAt?$AAo?$AAb?$AAe?$AAr?$AA?$AA@ 0004220c     LIBCMT:nlsdata.obj
 0002:0000521c       ??_C@_1BC@BGLIFPF@?$AAN?$AAo?$AAv?$AAe?$AAm?$AAb?$AAe?$AAr?$AA?$AA@ 0004221c     LIBCMT:nlsdata.obj
 0002:00005230       ??_C@_1BC@FEMKIFH@?$AAD?$AAe?$AAc?$AAe?$AAm?$AAb?$AAe?$AAr?$AA?$AA@ 00042230     LIBCMT:nlsdata.obj
 0002:00005244       ??_C@_15ODEHAHHF@?$AAA?$AAM?$AA?$AA@ 00042244     LIBCMT:nlsdata.obj
 0002:0000524c       ??_C@_15CLMNNGEL@?$AAP?$AAM?$AA?$AA@ 0004224c     LIBCMT:nlsdata.obj
 0002:00005254       ??_C@_1BC@IEBCMHCM@?$AAM?$AAM?$AA?1?$AAd?$AAd?$AA?1?$AAy?$AAy?$AA?$AA@ 00042254     LIBCMT:nlsdata.obj
 0002:00005268       ??_C@_1CI@KNAKOEBC@?$AAd?$AAd?$AAd?$AAd?$AA?0?$AA?5?$AAM?$AAM?$AAM?$AAM?$AA?5?$AAd?$AAd?$AA?0?$AA?5?$AAy?$AAy?$AAy?$AAy?$AA?$AA@ 00042268     LIBCMT:nlsdata.obj
 0002:00005290       ??_C@_1BC@GDGBMEMK@?$AAH?$AAH?$AA?3?$AAm?$AAm?$AA?3?$AAs?$AAs?$AA?$AA@ 00042290     LIBCMT:nlsdata.obj
 0002:000052a4       ??_C@_1M@BMHNFIME@?$AAe?$AAn?$AA?9?$AAU?$AAS?$AA?$AA@ 000422a4     LIBCMT:nlsdata.obj
 0002:000052b0       ??_C@_11LOCGONAA@?$AA?$AA@ 000422b0     LIBCMT:nlsdata.obj
 0002:000052b8       ??_C@_1HE@KAEKHNAE@?$AAE?$AAR?$AAR?$AAO?$AAR?$AA?3?$AA?5?$AAF?$AAa?$AAi?$AAl?$AAe?$AAd?$AA?5?$AAt?$AAo?$AA?5?$AAC?$AAo?$AAn?$AAv?$AAe?$AAr?$AAt?$AA?5?$AAt?$AAo?$AA?5?$AAw?$AAi?$AAd?$AAe@ 000422b8     LIBCMT:write.obj
 0002:0000532c       ??_C@_1M@PBPMMENC@?$AAa?$AAm?$AA?1?$AAp?$AAm?$AA?$AA@ 0004232c     LIBCMT:wcsftime.obj
 0002:00005338       ??_C@_17BLFJJHMM@?$AAa?$AA?1?$AAp?$AA?$AA@ 00042338     LIBCMT:wcsftime.obj
 0002:00005340       ??_C@_15KEGLFFFP@?$AA?$CC?$AA?5?$AA?$AA@ 00042340     LIBCMT:stdargv.obj
 0002:00005348       ??_C@_13NEIAEHFG@?$AA?$CC?$AA?$AA@ 00042348     LIBCMT:stdargv.obj
 0002:00005350       _XcptActTab                00042350     LIBCMT:winxfltr.obj
 0002:000053e0       _XcptActTabCount           000423e0     LIBCMT:winxfltr.obj
 0002:000053e4       _XcptActTabSize            000423e4     LIBCMT:winxfltr.obj
 0002:000053e8       _First_FPE_Indx            000423e8     LIBCMT:winxfltr.obj
 0002:000053ec       _Num_FPE                   000423ec     LIBCMT:winxfltr.obj
 0002:000053f0       __lookuptable_s            000423f0     LIBCMT:outputs.obj
 0002:0000544c       ??_C@_15EMKDOKLE@?$AAa?$AAr?$AA?$AA@ 0004244c     LIBCMT:winapinls.obj
 0002:00005454       ??_C@_15KNPADPLH@?$AAb?$AAg?$AA?$AA@ 00042454     LIBCMT:winapinls.obj
 0002:0000545c       ??_C@_15EDMHLDMO@?$AAc?$AAa?$AA?$AA@ 0004245c     LIBCMT:winapinls.obj
 0002:00005464       ??_C@_1O@BPEAJADD@?$AAz?$AAh?$AA?9?$AAC?$AAH?$AAS?$AA?$AA@ 00042464     LIBCMT:winapinls.obj
 0002:00005474       ??_C@_15LJNHCMNK@?$AAc?$AAs?$AA?$AA@ 00042474     LIBCMT:winapinls.obj
 0002:0000547c       ??_C@_15FOMCIDHG@?$AAd?$AAa?$AA?$AA@ 0004247c     LIBCMT:winapinls.obj
 0002:00005484       ??_C@_15NBKABECB@?$AAd?$AAe?$AA?$AA@ 00042484     LIBCMT:winapinls.obj
 0002:0000548c       ??_C@_15GHPEIIAO@?$AAe?$AAl?$AA?$AA@ 0004248c     LIBCMT:winapinls.obj
 0002:00005494       ??_C@_15MNPNEAIF@?$AAe?$AAn?$AA?$AA@ 00042494     LIBCMT:winapinls.obj
 0002:0000549c       ??_C@_15GPIOMPMH@?$AAe?$AAs?$AA?$AA@ 0004249c     LIBCMT:winapinls.obj
 0002:000054a4       ??_C@_15NGLOAKJC@?$AAf?$AAi?$AA?$AA@ 000424a4     LIBCMT:winapinls.obj
 0002:000054ac       ??_C@_15FBKGNKAM@?$AAf?$AAr?$AA?$AA@ 000424ac     LIBCMT:winapinls.obj
 0002:000054b4       ??_C@_15KGGCNEFK@?$AAh?$AAe?$AA?$AA@ 000424b4     LIBCMT:winapinls.obj
 0002:000054bc       ??_C@_15PGHLIDMF@?$AAh?$AAu?$AA?$AA@ 000424bc     LIBCMT:winapinls.obj
 0002:000054c4       ??_C@_15BIEMAPLM@?$AAi?$AAs?$AA?$AA@ 000424c4     LIBCMT:winapinls.obj
 0002:000054cc       ??_C@_15IFJLDHAF@?$AAi?$AAt?$AA?$AA@ 000424cc     LIBCMT:winapinls.obj
 0002:000054d4       ??_C@_15GEMIOCAG@?$AAj?$AAa?$AA?$AA@ 000424d4     LIBCMT:winapinls.obj
 0002:000054dc       ??_C@_15EPELEGJA@?$AAk?$AAo?$AA?$AA@ 000424dc     LIBCMT:winapinls.obj
 0002:000054e4       ??_C@_15NDDHIMN@?$AAn?$AAl?$AA?$AA@ 000424e4     LIBCMT:winapinls.obj
 0002:000054ec       ??_C@_15BPIGNHCD@?$AAn?$AAo?$AA?$AA@ 000424ec     LIBCMT:winapinls.obj
 0002:000054f4       ??_C@_15DEOPBLCG@?$AAp?$AAl?$AA?$AA@ 000424f4     LIBCMT:winapinls.obj
 0002:000054fc       ??_C@_15KBECGEFG@?$AAp?$AAt?$AA?$AA@ 000424fc     LIBCMT:winapinls.obj
 0002:00005504       ??_C@_15GLJCBFMD@?$AAr?$AAo?$AA?$AA@ 00042504     LIBCMT:winapinls.obj
 0002:0000550c       ??_C@_15FEDGKCDI@?$AAr?$AAu?$AA?$AA@ 0004250c     LIBCMT:winapinls.obj
 0002:00005514       ??_C@_15GLKMLLHM@?$AAh?$AAr?$AA?$AA@ 00042514     LIBCMT:winapinls.obj
 0002:0000551c       ??_C@_15CPKMFBDB@?$AAs?$AAk?$AA?$AA@ 0004251c     LIBCMT:winapinls.obj
 0002:00005524       ??_C@_15BAAIOGMK@?$AAs?$AAq?$AA?$AA@ 00042524     LIBCMT:winapinls.obj
 0002:0000552c       ??_C@_15INNPNOHD@?$AAs?$AAv?$AA?$AA@ 0004252c     LIBCMT:winapinls.obj
 0002:00005534       ??_C@_15CABMMOGH@?$AAt?$AAh?$AA?$AA@ 00042534     LIBCMT:winapinls.obj
 0002:0000553c       ??_C@_15BPLIHJJM@?$AAt?$AAr?$AA?$AA@ 0004253c     LIBCMT:winapinls.obj
 0002:00005544       ??_C@_15NEOEKKDJ@?$AAu?$AAr?$AA?$AA@ 00042544     LIBCMT:winapinls.obj
 0002:0000554c       ??_C@_15NFICGAJK@?$AAi?$AAd?$AA?$AA@ 0004254c     LIBCMT:winapinls.obj
 0002:00005554       ??_C@_15PJPFLCCM@?$AAu?$AAk?$AA?$AA@ 00042554     LIBCMT:winapinls.obj
 0002:0000555c       ??_C@_15HPJPHDM@?$AAb?$AAe?$AA?$AA@ 0004255c     LIBCMT:winapinls.obj
 0002:00005564       ??_C@_15LCHLGJII@?$AAs?$AAl?$AA?$AA@ 00042564     LIBCMT:winapinls.obj
 0002:0000556c       ??_C@_15PCFJPHHO@?$AAe?$AAt?$AA?$AA@ 0004256c     LIBCMT:winapinls.obj
 0002:00005574       ??_C@_15HPFPGODN@?$AAl?$AAv?$AA?$AA@ 00042574     LIBCMT:winapinls.obj
 0002:0000557c       ??_C@_15NFFGKGLG@?$AAl?$AAt?$AA?$AA@ 0004257c     LIBCMT:winapinls.obj
 0002:00005584       ??_C@_15BDAKCCHN@?$AAf?$AAa?$AA?$AA@ 00042584     LIBCMT:winapinls.obj
 0002:0000558c       ??_C@_15NFGIAIAJ@?$AAv?$AAi?$AA?$AA@ 0004258c     LIBCMT:winapinls.obj
 0002:00005594       ??_C@_15LMKNDMHN@?$AAh?$AAy?$AA?$AA@ 00042594     LIBCMT:winapinls.obj
 0002:0000559c       ??_C@_15IJBHMCFL@?$AAa?$AAz?$AA?$AA@ 0004259c     LIBCMT:winapinls.obj
 0002:000055a4       ??_C@_15EKOFJABL@?$AAe?$AAu?$AA?$AA@ 000425a4     LIBCMT:winapinls.obj
 0002:000055ac       ??_C@_15BGHADCNK@?$AAm?$AAk?$AA?$AA@ 000425ac     LIBCMT:winapinls.obj
 0002:000055b4       ??_C@_15JDNICKHM@?$AAa?$AAf?$AA?$AA@ 000425b4     LIBCMT:winapinls.obj
 0002:000055bc       ??_C@_15KPJEDBKD@?$AAk?$AAa?$AA?$AA@ 000425bc     LIBCMT:winapinls.obj
 0002:000055c4       ??_C@_15PDNFFFEO@?$AAf?$AAo?$AA?$AA@ 000425c4     LIBCMT:winapinls.obj
 0002:000055cc       ??_C@_15OMLEGLOC@?$AAh?$AAi?$AA?$AA@ 000425cc     LIBCMT:winapinls.obj
 0002:000055d4       ??_C@_15IDNNENKK@?$AAm?$AAs?$AA?$AA@ 000425d4     LIBCMT:winapinls.obj
 0002:000055dc       ??_C@_15MACJNBMH@?$AAk?$AAk?$AA?$AA@ 000425dc     LIBCMT:winapinls.obj
 0002:000055e4       ??_C@_15DKDJEOND@?$AAk?$AAy?$AA?$AA@ 000425e4     LIBCMT:winapinls.obj
 0002:000055ec       ??_C@_15DFGDLJBG@?$AAs?$AAw?$AA?$AA@ 000425ec     LIBCMT:winapinls.obj
 0002:000055f4       ??_C@_15BBFAICNG@?$AAu?$AAz?$AA?$AA@ 000425f4     LIBCMT:winapinls.obj
 0002:000055fc       ??_C@_15DKNDCGEA@?$AAt?$AAt?$AA?$AA@ 000425fc     LIBCMT:winapinls.obj
 0002:00005604       ??_C@_15MGIFMDPL@?$AAp?$AAa?$AA?$AA@ 00042604     LIBCMT:winapinls.obj
 0002:0000560c       ??_C@_15HCNDBBA@?$AAg?$AAu?$AA?$AA@ 0004260c     LIBCMT:winapinls.obj
 0002:00005614       ??_C@_15FNBEIBON@?$AAt?$AAa?$AA?$AA@ 00042614     LIBCMT:winapinls.obj
 0002:0000561c       ??_C@_15NCHGBGLK@?$AAt?$AAe?$AA?$AA@ 0004261c     LIBCMT:winapinls.obj
 0002:00005624       ??_C@_15PHPHCBPF@?$AAk?$AAn?$AA?$AA@ 00042624     LIBCMT:winapinls.obj
 0002:0000562c       ??_C@_15DLGBCKMP@?$AAm?$AAr?$AA?$AA@ 0004262c     LIBCMT:winapinls.obj
 0002:00005634       ??_C@_15EABBLBFF@?$AAs?$AAa?$AA?$AA@ 00042634     LIBCMT:winapinls.obj
 0002:0000563c       ??_C@_15CBKOMCOI@?$AAm?$AAn?$AA?$AA@ 0004263c     LIBCMT:winapinls.obj
 0002:00005644       ??_C@_15CKDMCJAF@?$AAg?$AAl?$AA?$AA@ 00042644     LIBCMT:winapinls.obj
 0002:0000564c       ??_C@_17CNJFBPG@?$AAk?$AAo?$AAk?$AA?$AA@ 0004264c     LIBCMT:winapinls.obj
 0002:00005654       ??_C@_17FFBJICPL@?$AAs?$AAy?$AAr?$AA?$AA@ 00042654     LIBCMT:winapinls.obj
 0002:0000565c       ??_C@_17KPNDCPAF@?$AAd?$AAi?$AAv?$AA?$AA@ 0004265c     LIBCMT:winapinls.obj
 0002:00005664       ??_C@_1M@OKAHONE@?$AAa?$AAr?$AA?9?$AAS?$AAA?$AA?$AA@ 00042664     LIBCMT:winapinls.obj
 0002:00005670       ??_C@_1M@FFFIGIGK@?$AAb?$AAg?$AA?9?$AAB?$AAG?$AA?$AA@ 00042670     LIBCMT:winapinls.obj
 0002:0000567c       ??_C@_1M@BJNKEDC@?$AAc?$AAa?$AA?9?$AAE?$AAS?$AA?$AA@ 0004267c     LIBCMT:winapinls.obj
 0002:00005688       ??_C@_1M@IJJHFJHA@?$AAc?$AAs?$AA?9?$AAC?$AAZ?$AA?$AA@ 00042688     LIBCMT:winapinls.obj
 0002:00005694       ??_C@_1M@CLPEOBGI@?$AAd?$AAa?$AA?9?$AAD?$AAK?$AA?$AA@ 00042694     LIBCMT:winapinls.obj
 0002:000056a0       ??_C@_1M@MCMADGCB@?$AAd?$AAe?$AA?9?$AAD?$AAE?$AA?$AA@ 000426a0     LIBCMT:winapinls.obj
 0002:000056ac       ??_C@_1M@OOCKEMAM@?$AAe?$AAl?$AA?9?$AAG?$AAR?$AA?$AA@ 000426ac     LIBCMT:winapinls.obj
 0002:000056b8       ??_C@_1M@DDNJFGID@?$AAf?$AAi?$AA?9?$AAF?$AAI?$AA?$AA@ 000426b8     LIBCMT:winapinls.obj
 0002:000056c4       ??_C@_1M@GLIPPMAC@?$AAf?$AAr?$AA?9?$AAF?$AAR?$AA?$AA@ 000426c4     LIBCMT:winapinls.obj
 0002:000056d0       ??_C@_1M@GFMCHPE@?$AAh?$AAe?$AA?9?$AAI?$AAL?$AA?$AA@ 000426d0     LIBCMT:winapinls.obj
 0002:000056dc       ??_C@_1M@MHLPGNKM@?$AAh?$AAu?$AA?9?$AAH?$AAU?$AA?$AA@ 000426dc     LIBCMT:winapinls.obj
 0002:000056e8       ??_C@_1M@LPDDNNPN@?$AAi?$AAs?$AA?9?$AAI?$AAS?$AA?$AA@ 000426e8     LIBCMT:winapinls.obj
 0002:000056f4       ??_C@_1M@MADIPODN@?$AAi?$AAt?$AA?9?$AAI?$AAT?$AA?$AA@ 000426f4     LIBCMT:winapinls.obj
 0002:00005700       ??_C@_1M@IHBJJGG@?$AAn?$AAl?$AA?9?$AAN?$AAL?$AA?$AA@ 00042700     LIBCMT:winapinls.obj
 0002:0000570c       ??_C@_1M@EANAGDL@?$AAn?$AAb?$AA?9?$AAN?$AAO?$AA?$AA@ 0004270c     LIBCMT:winapinls.obj
 0002:00005718       ??_C@_1M@NEIEMEGP@?$AAp?$AAl?$AA?9?$AAP?$AAL?$AA?$AA@ 00042718     LIBCMT:winapinls.obj
 0002:00005724       ??_C@_1M@BOCFIGEP@?$AAp?$AAt?$AA?9?$AAB?$AAR?$AA?$AA@ 00042724     LIBCMT:winapinls.obj
 0002:00005730       ??_C@_1M@IMPFOPBG@?$AAr?$AAo?$AA?9?$AAR?$AAO?$AA?$AA@ 00042730     LIBCMT:winapinls.obj
 0002:0000573c       ??_C@_1M@IDNNEJMM@?$AAr?$AAu?$AA?9?$AAR?$AAU?$AA?$AA@ 0004273c     LIBCMT:winapinls.obj
 0002:00005748       ??_C@_1M@LILEEOGM@?$AAh?$AAr?$AA?9?$AAH?$AAR?$AA?$AA@ 00042748     LIBCMT:winapinls.obj
 0002:00005754       ??_C@_1M@FKIFEHPB@?$AAs?$AAk?$AA?9?$AAS?$AAK?$AA?$AA@ 00042754     LIBCMT:winapinls.obj
 0002:00005760       ??_C@_1M@LJMAMNPJ@?$AAs?$AAq?$AA?9?$AAA?$AAL?$AA?$AA@ 00042760     LIBCMT:winapinls.obj
 0002:0000576c       ??_C@_1M@GIAKDKJK@?$AAs?$AAv?$AA?9?$AAS?$AAE?$AA?$AA@ 0004276c     LIBCMT:winapinls.obj
 0002:00005778       ??_C@_1M@MKJKIKCL@?$AAt?$AAh?$AA?9?$AAT?$AAH?$AA?$AA@ 00042778     LIBCMT:winapinls.obj
 0002:00005784       ??_C@_1M@MFLCCMPB@?$AAt?$AAr?$AA?9?$AAT?$AAR?$AA?$AA@ 00042784     LIBCMT:winapinls.obj
 0002:00005790       ??_C@_1M@OIJHDKJN@?$AAu?$AAr?$AA?9?$AAP?$AAK?$AA?$AA@ 00042790     LIBCMT:winapinls.obj
 0002:0000579c       ??_C@_1M@LHIPCIEK@?$AAi?$AAd?$AA?9?$AAI?$AAD?$AA?$AA@ 0004279c     LIBCMT:winapinls.obj
 0002:000057a8       ??_C@_1M@MFMOBGI@?$AAu?$AAk?$AA?9?$AAU?$AAA?$AA?$AA@ 000427a8     LIBCMT:winapinls.obj
 0002:000057b4       ??_C@_1M@OBGLJIPL@?$AAb?$AAe?$AA?9?$AAB?$AAY?$AA?$AA@ 000427b4     LIBCMT:winapinls.obj
 0002:000057c0       ??_C@_1M@BCFAJEAD@?$AAs?$AAl?$AA?9?$AAS?$AAI?$AA?$AA@ 000427c0     LIBCMT:winapinls.obj
 0002:000057cc       ??_C@_1M@FKFFEDDN@?$AAe?$AAt?$AA?9?$AAE?$AAE?$AA?$AA@ 000427cc     LIBCMT:winapinls.obj
 0002:000057d8       ??_C@_1M@KGKKAACI@?$AAl?$AAv?$AA?9?$AAL?$AAV?$AA?$AA@ 000427d8     LIBCMT:winapinls.obj
 0002:000057e4       ??_C@_1M@IFGBIJO@?$AAl?$AAt?$AA?9?$AAL?$AAT?$AA?$AA@ 000427e4     LIBCMT:winapinls.obj
 0002:000057f0       ??_C@_1M@FGEAHEDM@?$AAf?$AAa?$AA?9?$AAI?$AAR?$AA?$AA@ 000427f0     LIBCMT:winapinls.obj
 0002:000057fc       ??_C@_1M@KBMAIBFN@?$AAv?$AAi?$AA?9?$AAV?$AAN?$AA?$AA@ 000427fc     LIBCMT:winapinls.obj
 0002:00005808       ??_C@_1M@GPCBKDJK@?$AAh?$AAy?$AA?9?$AAA?$AAM?$AA?$AA@ 00042808     LIBCMT:winapinls.obj
 0002:00005814       ??_C@_1BG@BECMDDJB@?$AAa?$AAz?$AA?9?$AAA?$AAZ?$AA?9?$AAL?$AAa?$AAt?$AAn?$AA?$AA@ 00042814     LIBCMT:winapinls.obj
 0002:0000582c       ??_C@_1M@MAOFCAEA@?$AAe?$AAu?$AA?9?$AAE?$AAS?$AA?$AA@ 0004282c     LIBCMT:winapinls.obj
 0002:00005838       ??_C@_1M@IGHABKPI@?$AAm?$AAk?$AA?9?$AAM?$AAK?$AA?$AA@ 00042838     LIBCMT:winapinls.obj
 0002:00005844       ??_C@_1M@IAIGNEJG@?$AAt?$AAn?$AA?9?$AAZ?$AAA?$AA?$AA@ 00042844     LIBCMT:winapinls.obj
 0002:00005850       ??_C@_1M@IIJCOJFA@?$AAx?$AAh?$AA?9?$AAZ?$AAA?$AA?$AA@ 00042850     LIBCMT:winapinls.obj
 0002:0000585c       ??_C@_1M@LGPJHNJH@?$AAz?$AAu?$AA?9?$AAZ?$AAA?$AA?$AA@ 0004285c     LIBCMT:winapinls.obj
 0002:00005868       ??_C@_1M@HOKAOIO@?$AAa?$AAf?$AA?9?$AAZ?$AAA?$AA?$AA@ 00042868     LIBCMT:winapinls.obj
 0002:00005874       ??_C@_1M@DPCLHLIE@?$AAk?$AAa?$AA?9?$AAG?$AAE?$AA?$AA@ 00042874     LIBCMT:winapinls.obj
 0002:00005880       ??_C@_1M@BLKMHJBI@?$AAf?$AAo?$AA?9?$AAF?$AAO?$AA?$AA@ 00042880     LIBCMT:winapinls.obj
 0002:0000588c       ??_C@_1M@LGGJAPPB@?$AAh?$AAi?$AA?9?$AAI?$AAN?$AA?$AA@ 0004288c     LIBCMT:winapinls.obj
 0002:00005898       ??_C@_1M@FIKPIHFE@?$AAm?$AAt?$AA?9?$AAM?$AAT?$AA?$AA@ 00042898     LIBCMT:winapinls.obj
 0002:000058a4       ??_C@_1M@HEGGPBFA@?$AAs?$AAe?$AA?9?$AAN?$AAO?$AA?$AA@ 000428a4     LIBCMT:winapinls.obj
 0002:000058b0       ??_C@_1M@EIBJEEPA@?$AAm?$AAs?$AA?9?$AAM?$AAY?$AA?$AA@ 000428b0     LIBCMT:winapinls.obj
 0002:000058bc       ??_C@_1M@FHLBGMPP@?$AAk?$AAk?$AA?9?$AAK?$AAZ?$AA?$AA@ 000428bc     LIBCMT:winapinls.obj
 0002:000058c8       ??_C@_1M@NGJJLCGI@?$AAk?$AAy?$AA?9?$AAK?$AAG?$AA?$AA@ 000428c8     LIBCMT:winapinls.obj
 0002:000058d4       ??_C@_1M@GIENNBFC@?$AAs?$AAw?$AA?9?$AAK?$AAE?$AA?$AA@ 000428d4     LIBCMT:winapinls.obj
 0002:000058e0       ??_C@_1BG@NDGMJIMJ@?$AAu?$AAz?$AA?9?$AAU?$AAZ?$AA?9?$AAL?$AAa?$AAt?$AAn?$AA?$AA@ 000428e0     LIBCMT:winapinls.obj
 0002:000058f8       ??_C@_1M@IDCCIHBC@?$AAt?$AAt?$AA?9?$AAR?$AAU?$AA?$AA@ 000428f8     LIBCMT:winapinls.obj
 0002:00005904       ??_C@_1M@LOICPMOJ@?$AAb?$AAn?$AA?9?$AAI?$AAN?$AA?$AA@ 00042904     LIBCMT:winapinls.obj
 0002:00005910       ??_C@_1M@KPKKNEAH@?$AAp?$AAa?$AA?9?$AAI?$AAN?$AA?$AA@ 00042910     LIBCMT:winapinls.obj
 0002:0000591c       ??_C@_1M@PJGPPBOG@?$AAg?$AAu?$AA?9?$AAI?$AAN?$AA?$AA@ 0004291c     LIBCMT:winapinls.obj
 0002:00005928       ??_C@_1M@KMKMOPHI@?$AAt?$AAa?$AA?9?$AAI?$AAN?$AA?$AA@ 00042928     LIBCMT:winapinls.obj
 0002:00005934       ??_C@_1M@KFEHEPAC@?$AAt?$AAe?$AA?9?$AAI?$AAN?$AA?$AA@ 00042934     LIBCMT:winapinls.obj
 0002:00005940       ??_C@_1M@CDCLMGHI@?$AAk?$AAn?$AA?9?$AAI?$AAN?$AA?$AA@ 00042940     LIBCMT:winapinls.obj
 0002:0000594c       ??_C@_1M@MIODLDKF@?$AAm?$AAl?$AA?9?$AAI?$AAN?$AA?$AA@ 0004294c     LIBCMT:winapinls.obj
 0002:00005958       ??_C@_1M@PBIEACPO@?$AAm?$AAr?$AA?9?$AAI?$AAN?$AA?$AA@ 00042958     LIBCMT:winapinls.obj
 0002:00005964       ??_C@_1M@NIDEAGPH@?$AAs?$AAa?$AA?9?$AAI?$AAN?$AA?$AA@ 00042964     LIBCMT:winapinls.obj
 0002:00005970       ??_C@_1M@FHIHCBIO@?$AAm?$AAn?$AA?9?$AAM?$AAN?$AA?$AA@ 00042970     LIBCMT:winapinls.obj
 0002:0000597c       ??_C@_1M@JAIJPENP@?$AAc?$AAy?$AA?9?$AAG?$AAB?$AA?$AA@ 0004297c     LIBCMT:winapinls.obj
 0002:00005988       ??_C@_1M@PHGFBEPN@?$AAg?$AAl?$AA?9?$AAE?$AAS?$AA?$AA@ 00042988     LIBCMT:winapinls.obj
 0002:00005994       ??_C@_1O@KPIPDNCP@?$AAk?$AAo?$AAk?$AA?9?$AAI?$AAN?$AA?$AA@ 00042994     LIBCMT:winapinls.obj
 0002:000059a4       ??_C@_1O@KNHJLDJA@?$AAs?$AAy?$AAr?$AA?9?$AAS?$AAY?$AA?$AA@ 000429a4     LIBCMT:winapinls.obj
 0002:000059b4       ??_C@_1O@MKEKBLAH@?$AAd?$AAi?$AAv?$AA?9?$AAM?$AAV?$AA?$AA@ 000429b4     LIBCMT:winapinls.obj
 0002:000059c4       ??_C@_1O@OHDCKDDF@?$AAq?$AAu?$AAz?$AA?9?$AAB?$AAO?$AA?$AA@ 000429c4     LIBCMT:winapinls.obj
 0002:000059d4       ??_C@_1M@LEPJNLFD@?$AAn?$AAs?$AA?9?$AAZ?$AAA?$AA?$AA@ 000429d4     LIBCMT:winapinls.obj
 0002:000059e0       ??_C@_1M@OMLEIIJB@?$AAm?$AAi?$AA?9?$AAN?$AAZ?$AA?$AA@ 000429e0     LIBCMT:winapinls.obj
 0002:000059ec       ??_C@_1M@PMPEAILG@?$AAa?$AAr?$AA?9?$AAI?$AAQ?$AA?$AA@ 000429ec     LIBCMT:winapinls.obj
 0002:000059f8       ??_C@_1M@CNKPNOEE@?$AAd?$AAe?$AA?9?$AAC?$AAH?$AA?$AA@ 000429f8     LIBCMT:winapinls.obj
 0002:00005a04       ??_C@_1M@LKMGMLKO@?$AAe?$AAn?$AA?9?$AAG?$AAB?$AA?$AA@ 00042a04     LIBCMT:winapinls.obj
 0002:00005a10       ??_C@_1M@PGKJFFGL@?$AAe?$AAs?$AA?9?$AAM?$AAX?$AA?$AA@ 00042a10     LIBCMT:winapinls.obj
 0002:00005a1c       ??_C@_1M@DNNANBDC@?$AAf?$AAr?$AA?9?$AAB?$AAE?$AA?$AA@ 00042a1c     LIBCMT:winapinls.obj
 0002:00005a28       ??_C@_1M@HLGMDFHM@?$AAi?$AAt?$AA?9?$AAC?$AAH?$AA?$AA@ 00042a28     LIBCMT:winapinls.obj
 0002:00005a34       ??_C@_1M@CLLBGJH@?$AAn?$AAl?$AA?9?$AAB?$AAE?$AA?$AA@ 00042a34     LIBCMT:winapinls.obj
 0002:00005a40       ??_C@_1M@BODBOGLF@?$AAn?$AAn?$AA?9?$AAN?$AAO?$AA?$AA@ 00042a40     LIBCMT:winapinls.obj
 0002:00005a4c       ??_C@_1M@HFFAHKAD@?$AAp?$AAt?$AA?9?$AAP?$AAT?$AA?$AA@ 00042a4c     LIBCMT:winapinls.obj
 0002:00005a58       ??_C@_1BG@LNOAKHIE@?$AAs?$AAr?$AA?9?$AAS?$AAP?$AA?9?$AAL?$AAa?$AAt?$AAn?$AA?$AA@ 00042a58     LIBCMT:winapinls.obj
 0002:00005a70       ??_C@_1M@HBMHBGAK@?$AAs?$AAv?$AA?9?$AAF?$AAI?$AA?$AA@ 00042a70     LIBCMT:winapinls.obj
 0002:00005a7c       ??_C@_1BG@DGCJGJBE@?$AAa?$AAz?$AA?9?$AAA?$AAZ?$AA?9?$AAC?$AAy?$AAr?$AAl?$AA?$AA@ 00042a7c     LIBCMT:winapinls.obj
 0002:00005a94       ??_C@_1M@KEJDAAHB@?$AAs?$AAe?$AA?9?$AAS?$AAE?$AA?$AA@ 00042a94     LIBCMT:winapinls.obj
 0002:00005aa0       ??_C@_1M@HEIBJJAD@?$AAm?$AAs?$AA?9?$AAB?$AAN?$AA?$AA@ 00042aa0     LIBCMT:winapinls.obj
 0002:00005aac       ??_C@_1BG@PBGJMCEM@?$AAu?$AAz?$AA?9?$AAU?$AAZ?$AA?9?$AAC?$AAy?$AAr?$AAl?$AA?$AA@ 00042aac     LIBCMT:winapinls.obj
 0002:00005ac4       ??_C@_1O@LAOBCMDF@?$AAq?$AAu?$AAz?$AA?9?$AAE?$AAC?$AA?$AA@ 00042ac4     LIBCMT:winapinls.obj
 0002:00005ad4       ??_C@_1M@POEEMAIO@?$AAa?$AAr?$AA?9?$AAE?$AAG?$AA?$AA@ 00042ad4     LIBCMT:winapinls.obj
 0002:00005ae0       ??_C@_1M@EFAKDEDL@?$AAz?$AAh?$AA?9?$AAH?$AAK?$AA?$AA@ 00042ae0     LIBCMT:winapinls.obj
 0002:00005aec       ??_C@_1M@HKKIJHGI@?$AAd?$AAe?$AA?9?$AAA?$AAT?$AA?$AA@ 00042aec     LIBCMT:winapinls.obj
 0002:00005af8       ??_C@_1M@KBFBEHJF@?$AAe?$AAn?$AA?9?$AAA?$AAU?$AA?$AA@ 00042af8     LIBCMT:winapinls.obj
 0002:00005b04       ??_C@_1M@MNPLFAAH@?$AAe?$AAs?$AA?9?$AAE?$AAS?$AA?$AA@ 00042b04     LIBCMT:winapinls.obj
 0002:00005b10       ??_C@_1M@HJOOJFMA@?$AAf?$AAr?$AA?9?$AAC?$AAA?$AA?$AA@ 00042b10     LIBCMT:winapinls.obj
 0002:00005b1c       ??_C@_1BG@JPOFPNAB@?$AAs?$AAr?$AA?9?$AAS?$AAP?$AA?9?$AAC?$AAy?$AAr?$AAl?$AA?$AA@ 00042b1c     LIBCMT:winapinls.obj
 0002:00005b34       ??_C@_1M@LNFOCMOB@?$AAs?$AAe?$AA?9?$AAF?$AAI?$AA?$AA@ 00042b34     LIBCMT:winapinls.obj
 0002:00005b40       ??_C@_1O@MGJBOAMB@?$AAq?$AAu?$AAz?$AA?9?$AAP?$AAE?$AA?$AA@ 00042b40     LIBCMT:winapinls.obj
 0002:00005b50       ??_C@_1M@GJINLBOK@?$AAa?$AAr?$AA?9?$AAL?$AAY?$AA?$AA@ 00042b50     LIBCMT:winapinls.obj
 0002:00005b5c       ??_C@_1M@GGMNHJNL@?$AAz?$AAh?$AA?9?$AAS?$AAG?$AA?$AA@ 00042b5c     LIBCMT:winapinls.obj
 0002:00005b68       ??_C@_1M@HOIKODND@?$AAd?$AAe?$AA?9?$AAL?$AAU?$AA?$AA@ 00042b68     LIBCMT:winapinls.obj
 0002:00005b74       ??_C@_1M@DDOCCGFG@?$AAe?$AAn?$AA?9?$AAC?$AAA?$AA?$AA@ 00042b74     LIBCMT:winapinls.obj
 0002:00005b80       ??_C@_1M@BNOEMJLF@?$AAe?$AAs?$AA?9?$AAG?$AAT?$AA?$AA@ 00042b80     LIBCMT:winapinls.obj
 0002:00005b8c       ??_C@_1M@EOGNKEK@?$AAf?$AAr?$AA?9?$AAC?$AAH?$AA?$AA@ 00042b8c     LIBCMT:winapinls.obj
 0002:00005b98       ??_C@_1M@FLIDJFHL@?$AAh?$AAr?$AA?9?$AAB?$AAA?$AA?$AA@ 00042b98     LIBCMT:winapinls.obj
 0002:00005ba4       ??_C@_1O@FMCELNAJ@?$AAs?$AAm?$AAj?$AA?9?$AAN?$AAO?$AA?$AA@ 00042ba4     LIBCMT:winapinls.obj
 0002:00005bb4       ??_C@_1M@JHGLJMGJ@?$AAa?$AAr?$AA?9?$AAD?$AAZ?$AA?$AA@ 00042bb4     LIBCMT:winapinls.obj
 0002:00005bc0       ??_C@_1M@JKKFDCNP@?$AAz?$AAh?$AA?9?$AAM?$AAO?$AA?$AA@ 00042bc0     LIBCMT:winapinls.obj
 0002:00005bcc       ??_C@_1M@GEEFALPE@?$AAd?$AAe?$AA?9?$AAL?$AAI?$AA?$AA@ 00042bcc     LIBCMT:winapinls.obj
 0002:00005bd8       ??_C@_1M@IGEOFBG@?$AAe?$AAn?$AA?9?$AAN?$AAZ?$AA?$AA@ 00042bd8     LIBCMT:winapinls.obj
 0002:00005be4       ??_C@_1M@KDBONEHP@?$AAe?$AAs?$AA?9?$AAC?$AAR?$AA?$AA@ 00042be4     LIBCMT:winapinls.obj
 0002:00005bf0       ??_C@_1M@FHMDOHNN@?$AAf?$AAr?$AA?9?$AAL?$AAU?$AA?$AA@ 00042bf0     LIBCMT:winapinls.obj
 0002:00005bfc       ??_C@_1BG@NFKKMAFG@?$AAb?$AAs?$AA?9?$AAB?$AAA?$AA?9?$AAL?$AAa?$AAt?$AAn?$AA?$AA@ 00042bfc     LIBCMT:winapinls.obj
 0002:00005c14       ??_C@_1O@IMNBEMCI@?$AAs?$AAm?$AAj?$AA?9?$AAS?$AAE?$AA?$AA@ 00042c14     LIBCMT:winapinls.obj
 0002:00005c24       ??_C@_1M@DHHMBNDP@?$AAa?$AAr?$AA?9?$AAM?$AAA?$AA?$AA@ 00042c24     LIBCMT:winapinls.obj
 0002:00005c30       ??_C@_1M@BNBLJCGH@?$AAe?$AAn?$AA?9?$AAI?$AAE?$AA?$AA@ 00042c30     LIBCMT:winapinls.obj
 0002:00005c3c       ??_C@_1M@GEPAFMDL@?$AAe?$AAs?$AA?9?$AAP?$AAA?$AA?$AA@ 00042c3c     LIBCMT:winapinls.obj
 0002:00005c48       ??_C@_1M@OJONDMDL@?$AAf?$AAr?$AA?9?$AAM?$AAC?$AA?$AA@ 00042c48     LIBCMT:winapinls.obj
 0002:00005c54       ??_C@_1BG@OBCNFJB@?$AAs?$AAr?$AA?9?$AAB?$AAA?$AA?9?$AAL?$AAa?$AAt?$AAn?$AA?$AA@ 00042c54     LIBCMT:winapinls.obj
 0002:00005c6c       ??_C@_1O@KEMEEGPO@?$AAs?$AAm?$AAa?$AA?9?$AAN?$AAO?$AA?$AA@ 00042c6c     LIBCMT:winapinls.obj
 0002:00005c7c       ??_C@_1M@ELMGFODK@?$AAa?$AAr?$AA?9?$AAT?$AAN?$AA?$AA@ 00042c7c     LIBCMT:winapinls.obj
 0002:00005c88       ??_C@_1M@BHDLHFAF@?$AAe?$AAn?$AA?9?$AAZ?$AAA?$AA?$AA@ 00042c88     LIBCMT:winapinls.obj
 0002:00005c94       ??_C@_1M@BMGIGLIF@?$AAe?$AAs?$AA?9?$AAD?$AAO?$AA?$AA@ 00042c94     LIBCMT:winapinls.obj
 0002:00005ca0       ??_C@_1BG@CMBHIPBE@?$AAs?$AAr?$AA?9?$AAB?$AAA?$AA?9?$AAC?$AAy?$AAr?$AAl?$AA?$AA@ 00042ca0     LIBCMT:winapinls.obj
 0002:00005cb8       ??_C@_1O@HEDBLHNP@?$AAs?$AAm?$AAa?$AA?9?$AAS?$AAE?$AA?$AA@ 00042cb8     LIBCMT:winapinls.obj
 0002:00005cc8       ??_C@_1M@DAGCADIM@?$AAa?$AAr?$AA?9?$AAO?$AAM?$AA?$AA@ 00042cc8     LIBCMT:winapinls.obj
 0002:00005cd4       ??_C@_1M@FODLMICG@?$AAe?$AAn?$AA?9?$AAJ?$AAM?$AA?$AA@ 00042cd4     LIBCMT:winapinls.obj
 0002:00005ce0       ??_C@_1M@DNMLCIHB@?$AAe?$AAs?$AA?9?$AAV?$AAE?$AA?$AA@ 00042ce0     LIBCMT:winapinls.obj
 0002:00005cec       ??_C@_1O@EOKHMKJK@?$AAs?$AAm?$AAs?$AA?9?$AAF?$AAI?$AA?$AA@ 00042cec     LIBCMT:winapinls.obj
 0002:00005cfc       ??_C@_1M@CAFJMKOF@?$AAa?$AAr?$AA?9?$AAY?$AAE?$AA?$AA@ 00042cfc     LIBCMT:winapinls.obj
 0002:00005d08       ??_C@_1M@CBFHIJLI@?$AAe?$AAn?$AA?9?$AAC?$AAB?$AA?$AA@ 00042d08     LIBCMT:winapinls.obj
 0002:00005d14       ??_C@_1M@BGNFLDN@?$AAe?$AAs?$AA?9?$AAC?$AAO?$AA?$AA@ 00042d14     LIBCMT:winapinls.obj
 0002:00005d20       ??_C@_1O@JMPHMAMC@?$AAs?$AAm?$AAn?$AA?9?$AAF?$AAI?$AA?$AA@ 00042d20     LIBCMT:winapinls.obj
 0002:00005d30       ??_C@_1M@JLANABKE@?$AAa?$AAr?$AA?9?$AAS?$AAY?$AA?$AA@ 00042d30     LIBCMT:winapinls.obj
 0002:00005d3c       ??_C@_1M@HPKGCFGN@?$AAe?$AAn?$AA?9?$AAB?$AAZ?$AA?$AA@ 00042d3c     LIBCMT:winapinls.obj
 0002:00005d48       ??_C@_1M@OLJCMLGM@?$AAe?$AAs?$AA?9?$AAP?$AAE?$AA?$AA@ 00042d48     LIBCMT:winapinls.obj
 0002:00005d54       ??_C@_1M@MKKGFKLE@?$AAa?$AAr?$AA?9?$AAJ?$AAO?$AA?$AA@ 00042d54     LIBCMT:winapinls.obj
 0002:00005d60       ??_C@_1M@EKPGLDNI@?$AAe?$AAn?$AA?9?$AAT?$AAT?$AA?$AA@ 00042d60     LIBCMT:winapinls.obj
 0002:00005d6c       ??_C@_1M@OONGHFHE@?$AAe?$AAs?$AA?9?$AAA?$AAR?$AA?$AA@ 00042d6c     LIBCMT:winapinls.obj
 0002:00005d78       ??_C@_1M@OOJFGBHE@?$AAa?$AAr?$AA?9?$AAL?$AAB?$AA?$AA@ 00042d78     LIBCMT:winapinls.obj
 0002:00005d84       ??_C@_1M@GCEJHNEG@?$AAe?$AAn?$AA?9?$AAZ?$AAW?$AA?$AA@ 00042d84     LIBCMT:winapinls.obj
 0002:00005d90       ??_C@_1M@JNOCAHJI@?$AAe?$AAs?$AA?9?$AAE?$AAC?$AA?$AA@ 00042d90     LIBCMT:winapinls.obj
 0002:00005d9c       ??_C@_1M@JEFHPGGB@?$AAa?$AAr?$AA?9?$AAK?$AAW?$AA?$AA@ 00042d9c     LIBCMT:winapinls.obj
 0002:00005da8       ??_C@_1M@MLKIBJOJ@?$AAe?$AAn?$AA?9?$AAP?$AAH?$AA?$AA@ 00042da8     LIBCMT:winapinls.obj
 0002:00005db4       ??_C@_1M@BDNIPEND@?$AAe?$AAs?$AA?9?$AAC?$AAL?$AA?$AA@ 00042db4     LIBCMT:winapinls.obj
 0002:00005dc0       ??_C@_1M@MPNMEKBD@?$AAa?$AAr?$AA?9?$AAA?$AAE?$AA?$AA@ 00042dc0     LIBCMT:winapinls.obj
 0002:00005dcc       ??_C@_1M@KBJALCPI@?$AAe?$AAs?$AA?9?$AAU?$AAY?$AA?$AA@ 00042dcc     LIBCMT:winapinls.obj
 0002:00005dd8       ??_C@_1M@LLCCOAGA@?$AAa?$AAr?$AA?9?$AAB?$AAH?$AA?$AA@ 00042dd8     LIBCMT:winapinls.obj
 0002:00005de4       ??_C@_1M@PBFNCDEL@?$AAe?$AAs?$AA?9?$AAP?$AAY?$AA?$AA@ 00042de4     LIBCMT:winapinls.obj
 0002:00005df0       ??_C@_1M@EDGINPNP@?$AAa?$AAr?$AA?9?$AAQ?$AAA?$AA?$AA@ 00042df0     LIBCMT:winapinls.obj
 0002:00005dfc       ??_C@_1M@MKDBIIJI@?$AAe?$AAs?$AA?9?$AAB?$AAO?$AA?$AA@ 00042dfc     LIBCMT:winapinls.obj
 0002:00005e08       ??_C@_1M@CPKKEBLD@?$AAe?$AAs?$AA?9?$AAS?$AAV?$AA?$AA@ 00042e08     LIBCMT:winapinls.obj
 0002:00005e14       ??_C@_1M@NDBGMMJL@?$AAe?$AAs?$AA?9?$AAH?$AAN?$AA?$AA@ 00042e14     LIBCMT:winapinls.obj
 0002:00005e20       ??_C@_1M@JIJIBHDP@?$AAe?$AAs?$AA?9?$AAN?$AAI?$AA?$AA@ 00042e20     LIBCMT:winapinls.obj
 0002:00005e2c       ??_C@_1M@CGFMKEEK@?$AAe?$AAs?$AA?9?$AAP?$AAR?$AA?$AA@ 00042e2c     LIBCMT:winapinls.obj
 0002:00005e38       ??_C@_1O@ICJHKIIK@?$AAz?$AAh?$AA?9?$AAC?$AAH?$AAT?$AA?$AA@ 00042e38     LIBCMT:winapinls.obj
 0002:00005e48       ??_C@_15CLNEJCE@?$AAs?$AAr?$AA?$AA@ 00042e48     LIBCMT:winapinls.obj
 0002:00005e50       LcidToLocaleNameTable      00042e50     LIBCMT:winapinls.obj
 0002:00006570       LocaleNameToIndexTable     00043570     LIBCMT:winapinls.obj
 0002:00006c90       ??_C@_1M@KAHEKEIG@?$AAa?$AAf?$AA?9?$AAz?$AAa?$AA?$AA@ 00043c90     LIBCMT:winapinls.obj
 0002:00006c9c       ??_C@_1M@GIECOABL@?$AAa?$AAr?$AA?9?$AAa?$AAe?$AA?$AA@ 00043c9c     LIBCMT:winapinls.obj
 0002:00006ca8       ??_C@_1M@BMLMEKGI@?$AAa?$AAr?$AA?9?$AAb?$AAh?$AA?$AA@ 00043ca8     LIBCMT:winapinls.obj
 0002:00006cb4       ??_C@_1M@DAPFDGGB@?$AAa?$AAr?$AA?9?$AAd?$AAz?$AA?$AA@ 00043cb4     LIBCMT:winapinls.obj
 0002:00006cc0       ??_C@_1M@FJNKGKIG@?$AAa?$AAr?$AA?9?$AAe?$AAg?$AA?$AA@ 00043cc0     LIBCMT:winapinls.obj
 0002:00006ccc       ??_C@_1M@FLGKKCLO@?$AAa?$AAr?$AA?9?$AAi?$AAq?$AA?$AA@ 00043ccc     LIBCMT:winapinls.obj
 0002:00006cd8       ??_C@_1M@GNDIPALM@?$AAa?$AAr?$AA?9?$AAj?$AAo?$AA?$AA@ 00043cd8     LIBCMT:winapinls.obj
 0002:00006ce4       ??_C@_1M@DDMJFMGJ@?$AAa?$AAr?$AA?9?$AAk?$AAw?$AA?$AA@ 00043ce4     LIBCMT:winapinls.obj
 0002:00006cf0       ??_C@_1M@EJALMLHM@?$AAa?$AAr?$AA?9?$AAl?$AAb?$AA?$AA@ 00043cf0     LIBCMT:winapinls.obj
 0002:00006cfc       ??_C@_1M@MOBDBLOC@?$AAa?$AAr?$AA?9?$AAl?$AAy?$AA?$AA@ 00043cfc     LIBCMT:winapinls.obj
 0002:00006d08       ??_C@_1M@JAOCLHDH@?$AAa?$AAr?$AA?9?$AAm?$AAa?$AA?$AA@ 00043d08     LIBCMT:winapinls.obj
 0002:00006d14       ??_C@_1M@JHPMKJIE@?$AAa?$AAr?$AA?9?$AAo?$AAm?$AA?$AA@ 00043d14     LIBCMT:winapinls.obj
 0002:00006d20       ??_C@_1M@OEPGHFNH@?$AAa?$AAr?$AA?9?$AAq?$AAa?$AA?$AA@ 00043d20     LIBCMT:winapinls.obj
 0002:00006d2c       ??_C@_1M@KJDONENM@?$AAa?$AAr?$AA?9?$AAs?$AAa?$AA?$AA@ 00043d2c     LIBCMT:winapinls.obj
 0002:00006d38       ??_C@_1M@DMJDKLKM@?$AAa?$AAr?$AA?9?$AAs?$AAy?$AA?$AA@ 00043d38     LIBCMT:winapinls.obj
 0002:00006d44       ??_C@_1M@OMFIPEDC@?$AAa?$AAr?$AA?9?$AAt?$AAn?$AA?$AA@ 00043d44     LIBCMT:winapinls.obj
 0002:00006d50       ??_C@_1M@IHMHGAON@?$AAa?$AAr?$AA?9?$AAy?$AAe?$AA?$AA@ 00043d50     LIBCMT:winapinls.obj
 0002:00006d5c       ??_C@_1BG@KDCPGJGB@?$AAa?$AAz?$AA?9?$AAa?$AAz?$AA?9?$AAc?$AAy?$AAr?$AAl?$AA?$AA@ 00043d5c     LIBCMT:winapinls.obj
 0002:00006d74       ??_C@_1BG@IBCKDDOE@?$AAa?$AAz?$AA?9?$AAa?$AAz?$AA?9?$AAl?$AAa?$AAt?$AAn?$AA?$AA@ 00043d74     LIBCMT:winapinls.obj
 0002:00006d8c       ??_C@_1M@EGPFDCPD@?$AAb?$AAe?$AA?9?$AAb?$AAy?$AA?$AA@ 00043d8c     LIBCMT:winapinls.obj
 0002:00006d98       ??_C@_1M@PCMGMCGC@?$AAb?$AAg?$AA?9?$AAb?$AAg?$AA?$AA@ 00043d98     LIBCMT:winapinls.obj
 0002:00006da4       ??_C@_1M@BJBMFGOB@?$AAb?$AAn?$AA?9?$AAi?$AAn?$AA?$AA@ 00043da4     LIBCMT:winapinls.obj
 0002:00006db0       ??_C@_1BG@EAKMMACD@?$AAb?$AAs?$AA?9?$AAb?$AAa?$AA?9?$AAl?$AAa?$AAt?$AAn?$AA?$AA@ 00043db0     LIBCMT:winapinls.obj
 0002:00006dc8       ??_C@_1M@KGADAODK@?$AAc?$AAa?$AA?9?$AAe?$AAs?$AA?$AA@ 00043dc8     LIBCMT:winapinls.obj
 0002:00006dd4       ??_C@_1M@COAJPDHI@?$AAc?$AAs?$AA?9?$AAc?$AAz?$AA?$AA@ 00043dd4     LIBCMT:winapinls.obj
 0002:00006de0       ??_C@_1M@DHBHFONH@?$AAc?$AAy?$AA?9?$AAg?$AAb?$AA?$AA@ 00043de0     LIBCMT:winapinls.obj
 0002:00006dec       ??_C@_1M@IMGKELGA@?$AAd?$AAa?$AA?9?$AAd?$AAk?$AA?$AA@ 00043dec     LIBCMT:winapinls.obj
 0002:00006df8       ??_C@_1M@NNDGDNGA@?$AAd?$AAe?$AA?9?$AAa?$AAt?$AA?$AA@ 00043df8     LIBCMT:winapinls.obj
 0002:00006e04       ??_C@_1M@IKDBHEEM@?$AAd?$AAe?$AA?9?$AAc?$AAh?$AA?$AA@ 00043e04     LIBCMT:winapinls.obj
 0002:00006e10       ??_C@_1M@GFFOJMCJ@?$AAd?$AAe?$AA?9?$AAd?$AAe?$AA?$AA@ 00043e10     LIBCMT:winapinls.obj
 0002:00006e1c       ??_C@_1M@MDNLKBPM@?$AAd?$AAe?$AA?9?$AAl?$AAi?$AA?$AA@ 00043e1c     LIBCMT:winapinls.obj
 0002:00006e28       ??_C@_1M@NJBEEJNL@?$AAd?$AAe?$AA?9?$AAl?$AAu?$AA?$AA@ 00043e28     LIBCMT:winapinls.obj
 0002:00006e34       ??_C@_1O@GNNELBAP@?$AAd?$AAi?$AAv?$AA?9?$AAm?$AAv?$AA?$AA@ 00043e34     LIBCMT:winapinls.obj
 0002:00006e44       ??_C@_1M@EJLEOGAE@?$AAe?$AAl?$AA?9?$AAg?$AAr?$AA?$AA@ 00043e44     LIBCMT:winapinls.obj
 0002:00006e50       ??_C@_1M@GMPONJN@?$AAe?$AAn?$AA?9?$AAa?$AAu?$AA?$AA@ 00043e50     LIBCMT:winapinls.obj
 0002:00006e5c       ??_C@_1M@NIDIIPGF@?$AAe?$AAn?$AA?9?$AAb?$AAz?$AA?$AA@ 00043e5c     LIBCMT:winapinls.obj
 0002:00006e68       ??_C@_1M@JEHMIMFO@?$AAe?$AAn?$AA?9?$AAc?$AAa?$AA?$AA@ 00043e68     LIBCMT:winapinls.obj
 0002:00006e74       ??_C@_1M@IGMJCDLA@?$AAe?$AAn?$AA?9?$AAc?$AAb?$AA?$AA@ 00043e74     LIBCMT:winapinls.obj
 0002:00006e80       ??_C@_1M@BNFIGBKG@?$AAe?$AAn?$AA?9?$AAg?$AAb?$AA?$AA@ 00043e80     LIBCMT:winapinls.obj
 0002:00006e8c       ??_C@_1M@LKIFDIGP@?$AAe?$AAn?$AA?9?$AAi?$AAe?$AA?$AA@ 00043e8c     LIBCMT:winapinls.obj
 0002:00006e98       ??_C@_1M@PJKFGCCO@?$AAe?$AAn?$AA?9?$AAj?$AAm?$AA?$AA@ 00043e98     LIBCMT:winapinls.obj
 0002:00006ea4       ??_C@_1M@KPPKEPBO@?$AAe?$AAn?$AA?9?$AAn?$AAz?$AA?$AA@ 00043ea4     LIBCMT:winapinls.obj
 0002:00006eb0       ??_C@_1M@GMDGLDOB@?$AAe?$AAn?$AA?9?$AAp?$AAh?$AA?$AA@ 00043eb0     LIBCMT:winapinls.obj
 0002:00006ebc       ??_C@_1M@ONGIBJNA@?$AAe?$AAn?$AA?9?$AAt?$AAt?$AA?$AA@ 00043ebc     LIBCMT:winapinls.obj
 0002:00006ec8       ??_C@_1M@LLODPCMM@?$AAe?$AAn?$AA?9?$AAu?$AAs?$AA?$AA@ 00043ec8     LIBCMT:winapinls.obj
 0002:00006ed4       ??_C@_1M@LAKFNPAN@?$AAe?$AAn?$AA?9?$AAz?$AAa?$AA?$AA@ 00043ed4     LIBCMT:winapinls.obj
 0002:00006ee0       ??_C@_1M@MFNHNHEO@?$AAe?$AAn?$AA?9?$AAz?$AAw?$AA?$AA@ 00043ee0     LIBCMT:winapinls.obj
 0002:00006eec       ??_C@_1M@EJEINPHM@?$AAe?$AAs?$AA?9?$AAa?$AAr?$AA?$AA@ 00043eec     LIBCMT:winapinls.obj
 0002:00006ef8       ??_C@_1M@GNKPCCJA@?$AAe?$AAs?$AA?9?$AAb?$AAo?$AA?$AA@ 00043ef8     LIBCMT:winapinls.obj
 0002:00006f04       ??_C@_1M@LEEGFONL@?$AAe?$AAs?$AA?9?$AAc?$AAl?$AA?$AA@ 00043f04     LIBCMT:winapinls.obj
 0002:00006f10       ??_C@_1M@KGPDPBDF@?$AAe?$AAs?$AA?9?$AAc?$AAo?$AA?$AA@ 00043f10     LIBCMT:winapinls.obj
 0002:00006f1c       ??_C@_1M@EIAHOHH@?$AAe?$AAs?$AA?9?$AAc?$AAr?$AA?$AA@ 00043f1c     LIBCMT:winapinls.obj
 0002:00006f28       ??_C@_1M@LLPGMBIN@?$AAe?$AAs?$AA?9?$AAd?$AAo?$AA?$AA@ 00043f28     LIBCMT:winapinls.obj
 0002:00006f34       ??_C@_1M@DKHMKNJA@?$AAe?$AAs?$AA?9?$AAe?$AAc?$AA?$AA@ 00043f34     LIBCMT:winapinls.obj
 0002:00006f40       ??_C@_1M@GKGFPKAP@?$AAe?$AAs?$AA?9?$AAe?$AAs?$AA?$AA@ 00043f40     LIBCMT:winapinls.obj
 0002:00006f4c       ??_C@_1M@LKHKGDLN@?$AAe?$AAs?$AA?9?$AAg?$AAt?$AA?$AA@ 00043f4c     LIBCMT:winapinls.obj
 0002:00006f58       ??_C@_1M@HEIIGGJD@?$AAe?$AAs?$AA?9?$AAh?$AAn?$AA?$AA@ 00043f58     LIBCMT:winapinls.obj
 0002:00006f64       ??_C@_1M@FBDHPPGD@?$AAe?$AAs?$AA?9?$AAm?$AAx?$AA?$AA@ 00043f64     LIBCMT:winapinls.obj
 0002:00006f70       ??_C@_1M@DPAGLNDH@?$AAe?$AAs?$AA?9?$AAn?$AAi?$AA?$AA@ 00043f70     LIBCMT:winapinls.obj
 0002:00006f7c       ??_C@_1M@MDGOPGDD@?$AAe?$AAs?$AA?9?$AAp?$AAa?$AA?$AA@ 00043f7c     LIBCMT:winapinls.obj
 0002:00006f88       ??_C@_1M@EMAMGBGE@?$AAe?$AAs?$AA?9?$AAp?$AAe?$AA?$AA@ 00043f88     LIBCMT:winapinls.obj
 0002:00006f94       ??_C@_1M@IBMCAOEC@?$AAe?$AAs?$AA?9?$AAp?$AAr?$AA?$AA@ 00043f94     LIBCMT:winapinls.obj
 0002:00006fa0       ??_C@_1M@FGMDIJED@?$AAe?$AAs?$AA?9?$AAp?$AAy?$AA?$AA@ 00043fa0     LIBCMT:winapinls.obj
 0002:00006fac       ??_C@_1M@IIDEOLLL@?$AAe?$AAs?$AA?9?$AAs?$AAv?$AA?$AA@ 00043fac     LIBCMT:winapinls.obj
 0002:00006fb8       ??_C@_1M@GAOBIPA@?$AAe?$AAs?$AA?9?$AAu?$AAy?$AA?$AA@ 00043fb8     LIBCMT:winapinls.obj
 0002:00006fc4       ??_C@_1M@JKFFICHJ@?$AAe?$AAs?$AA?9?$AAv?$AAe?$AA?$AA@ 00043fc4     LIBCMT:winapinls.obj
 0002:00006fd0       ??_C@_1M@PNMLOJDF@?$AAe?$AAt?$AA?9?$AAe?$AAe?$AA?$AA@ 00043fd0     LIBCMT:winapinls.obj
 0002:00006fdc       ??_C@_1M@GHHLIKEI@?$AAe?$AAu?$AA?9?$AAe?$AAs?$AA?$AA@ 00043fdc     LIBCMT:winapinls.obj
 0002:00006fe8       ??_C@_1M@PBNONODE@?$AAf?$AAa?$AA?9?$AAi?$AAr?$AA?$AA@ 00043fe8     LIBCMT:winapinls.obj
 0002:00006ff4       ??_C@_1M@JEEHPMIL@?$AAf?$AAi?$AA?9?$AAf?$AAi?$AA?$AA@ 00043ff4     LIBCMT:winapinls.obj
 0002:00007000       ??_C@_1M@LMDCNDBA@?$AAf?$AAo?$AA?9?$AAf?$AAo?$AA?$AA@ 00044000     LIBCMT:winapinls.obj
 0002:0000700c       ??_C@_1M@JKEOHLDK@?$AAf?$AAr?$AA?9?$AAb?$AAe?$AA?$AA@ 0004400c     LIBCMT:winapinls.obj
 0002:00007018       ??_C@_1M@NOHADPMI@?$AAf?$AAr?$AA?9?$AAc?$AAa?$AA?$AA@ 00044018     LIBCMT:winapinls.obj
 0002:00007024       ??_C@_1M@KDHIHAEC@?$AAf?$AAr?$AA?9?$AAc?$AAh?$AA?$AA@ 00044024     LIBCMT:winapinls.obj
 0002:00007030       ??_C@_1M@MMBBFGAK@?$AAf?$AAr?$AA?9?$AAf?$AAr?$AA?$AA@ 00044030     LIBCMT:winapinls.obj
 0002:0000703c       ??_C@_1M@PAFNENNF@?$AAf?$AAr?$AA?9?$AAl?$AAu?$AA?$AA@ 0004403c     LIBCMT:winapinls.obj
 0002:00007048       ??_C@_1M@EOHDJGDD@?$AAf?$AAr?$AA?9?$AAm?$AAc?$AA?$AA@ 00044048     LIBCMT:winapinls.obj
 0002:00007054       ??_C@_1M@FAPLLOPF@?$AAg?$AAl?$AA?9?$AAe?$AAs?$AA?$AA@ 00044054     LIBCMT:winapinls.obj
 0002:00007060       ??_C@_1M@FOPBFLOO@?$AAg?$AAu?$AA?9?$AAi?$AAn?$AA?$AA@ 00044060     LIBCMT:winapinls.obj
 0002:0000706c       ??_C@_1M@KBMCINPM@?$AAh?$AAe?$AA?9?$AAi?$AAl?$AA?$AA@ 0004406c     LIBCMT:winapinls.obj
 0002:00007078       ??_C@_1M@BBPHKFPJ@?$AAh?$AAi?$AA?9?$AAi?$AAn?$AA?$AA@ 00044078     LIBCMT:winapinls.obj
 0002:00007084       ??_C@_1M@PMBNDPHD@?$AAh?$AAr?$AA?9?$AAb?$AAa?$AA?$AA@ 00044084     LIBCMT:winapinls.obj
 0002:00007090       ??_C@_1M@BPCKOEGE@?$AAh?$AAr?$AA?9?$AAh?$AAr?$AA?$AA@ 00044090     LIBCMT:winapinls.obj
 0002:0000709c       ??_C@_1M@GACBMHKE@?$AAh?$AAu?$AA?9?$AAh?$AAu?$AA?$AA@ 0004409c     LIBCMT:winapinls.obj
 0002:000070a8       ??_C@_1M@MILPAJJC@?$AAh?$AAy?$AA?9?$AAa?$AAm?$AA?$AA@ 000440a8     LIBCMT:winapinls.obj
 0002:000070b4       ??_C@_1M@BABBICEC@?$AAi?$AAd?$AA?9?$AAi?$AAd?$AA?$AA@ 000440b4     LIBCMT:winapinls.obj
 0002:000070c0       ??_C@_1M@BIKNHHPF@?$AAi?$AAs?$AA?9?$AAi?$AAs?$AA?$AA@ 000440c0     LIBCMT:winapinls.obj
 0002:000070cc       ??_C@_1M@NMPCJPHE@?$AAi?$AAt?$AA?9?$AAc?$AAh?$AA?$AA@ 000440cc     LIBCMT:winapinls.obj
 0002:000070d8       ??_C@_1M@GHKGFEDF@?$AAi?$AAt?$AA?9?$AAi?$AAt?$AA?$AA@ 000440d8     LIBCMT:winapinls.obj
 0002:000070e4       ??_C@_1M@NIEJCJJA@?$AAj?$AAa?$AA?9?$AAj?$AAp?$AA?$AA@ 000440e4     LIBCMT:winapinls.obj
 0002:000070f0       ??_C@_1M@JILFNBIM@?$AAk?$AAa?$AA?9?$AAg?$AAe?$AA?$AA@ 000440f0     LIBCMT:winapinls.obj
 0002:000070fc       ??_C@_1M@PACPMGPH@?$AAk?$AAk?$AA?9?$AAk?$AAz?$AA?$AA@ 000440fc     LIBCMT:winapinls.obj
 0002:00007108       ??_C@_1M@IELFGMHA@?$AAk?$AAn?$AA?9?$AAi?$AAn?$AA?$AA@ 00044108     LIBCMT:winapinls.obj
 0002:00007114       ??_C@_1O@IBBJHCH@?$AAk?$AAo?$AAk?$AA?9?$AAi?$AAn?$AA?$AA@ 00044114     LIBCMT:winapinls.obj
 0002:00007124       ??_C@_1M@DMHAEOGC@?$AAk?$AAo?$AA?9?$AAk?$AAr?$AA?$AA@ 00044124     LIBCMT:winapinls.obj
 0002:00007130       ??_C@_1M@HBAHBIGA@?$AAk?$AAy?$AA?9?$AAk?$AAg?$AA?$AA@ 00044130     LIBCMT:winapinls.obj
 0002:0000713c       ??_C@_1M@KPMILCJG@?$AAl?$AAt?$AA?9?$AAl?$AAt?$AA?$AA@ 0004413c     LIBCMT:winapinls.obj
 0002:00007148       ??_C@_1M@BDEKKCA@?$AAl?$AAv?$AA?9?$AAl?$AAv?$AA?$AA@ 00044148     LIBCMT:winapinls.obj
 0002:00007154       ??_C@_1M@ELCKCCJJ@?$AAm?$AAi?$AA?9?$AAn?$AAz?$AA?$AA@ 00044154     LIBCMT:winapinls.obj
 0002:00007160       ??_C@_1M@CBOOLAPA@?$AAm?$AAk?$AA?9?$AAm?$AAk?$AA?$AA@ 00044160     LIBCMT:winapinls.obj
 0002:0000716c       ??_C@_1M@GPHNBJKN@?$AAm?$AAl?$AA?9?$AAi?$AAn?$AA?$AA@ 0004416c     LIBCMT:winapinls.obj
 0002:00007178       ??_C@_1M@PABJILIG@?$AAm?$AAn?$AA?9?$AAm?$AAn?$AA?$AA@ 00044178     LIBCMT:winapinls.obj
 0002:00007184       ??_C@_1M@FGBKKIPG@?$AAm?$AAr?$AA?9?$AAi?$AAn?$AA?$AA@ 00044184     LIBCMT:winapinls.obj
 0002:00007190       ??_C@_1M@NDBPDDAL@?$AAm?$AAs?$AA?9?$AAb?$AAn?$AA?$AA@ 00044190     LIBCMT:winapinls.obj
 0002:0000719c       ??_C@_1M@OPIHOOPI@?$AAm?$AAs?$AA?9?$AAm?$AAy?$AA?$AA@ 0004419c     LIBCMT:winapinls.obj
 0002:000071a8       ??_C@_1M@PPDBCNFM@?$AAm?$AAt?$AA?9?$AAm?$AAt?$AA?$AA@ 000441a8     LIBCMT:winapinls.obj
 0002:000071b4       ??_C@_1M@KDJDKMDD@?$AAn?$AAb?$AA?9?$AAn?$AAo?$AA?$AA@ 000441b4     LIBCMT:winapinls.obj
 0002:000071c0       ??_C@_1M@KFCFLMJP@?$AAn?$AAl?$AA?9?$AAb?$AAe?$AA?$AA@ 000441c0     LIBCMT:winapinls.obj
 0002:000071cc       ??_C@_1M@KPOPDDGO@?$AAn?$AAl?$AA?9?$AAn?$AAl?$AA?$AA@ 000441cc     LIBCMT:winapinls.obj
 0002:000071d8       ??_C@_1M@LJKPEMLN@?$AAn?$AAn?$AA?9?$AAn?$AAo?$AA?$AA@ 000441d8     LIBCMT:winapinls.obj
 0002:000071e4       ??_C@_1M@BDGHHBFL@?$AAn?$AAs?$AA?9?$AAz?$AAa?$AA?$AA@ 000441e4     LIBCMT:winapinls.obj
 0002:000071f0       ??_C@_1M@IDEHOAP@?$AAp?$AAa?$AA?9?$AAi?$AAn?$AA?$AA@ 000441f0     LIBCMT:winapinls.obj
 0002:000071fc       ??_C@_1M@HDBKGOGH@?$AAp?$AAl?$AA?9?$AAp?$AAl?$AA?$AA@ 000441fc     LIBCMT:winapinls.obj
 0002:00007208       ??_C@_1M@LJLLCMEH@?$AAp?$AAt?$AA?9?$AAb?$AAr?$AA?$AA@ 00044208     LIBCMT:winapinls.obj
 0002:00007214       ??_C@_1M@NCMONAAL@?$AAp?$AAt?$AA?9?$AAp?$AAt?$AA?$AA@ 00044214     LIBCMT:winapinls.obj
 0002:00007220       ??_C@_1O@EAKMAJDN@?$AAq?$AAu?$AAz?$AA?9?$AAb?$AAo?$AA?$AA@ 00044220     LIBCMT:winapinls.obj
 0002:00007230       ??_C@_1O@BHHPIGDN@?$AAq?$AAu?$AAz?$AA?9?$AAe?$AAc?$AA?$AA@ 00044230     LIBCMT:winapinls.obj
 0002:00007240       ??_C@_1O@GBAPEKMJ@?$AAq?$AAu?$AAz?$AA?9?$AAp?$AAe?$AA?$AA@ 00044240     LIBCMT:winapinls.obj
 0002:00007250       ??_C@_1M@CLGLEFBO@?$AAr?$AAo?$AA?9?$AAr?$AAo?$AA?$AA@ 00044250     LIBCMT:winapinls.obj
 0002:0000725c       ??_C@_1M@CEEDODME@?$AAr?$AAu?$AA?9?$AAr?$AAu?$AA?$AA@ 0004425c     LIBCMT:winapinls.obj
 0002:00007268       ??_C@_1M@HPKKKMPP@?$AAs?$AAa?$AA?9?$AAi?$AAn?$AA?$AA@ 00044268     LIBCMT:winapinls.obj
 0002:00007274       ??_C@_1M@BKMAIGOJ@?$AAs?$AAe?$AA?9?$AAf?$AAi?$AA?$AA@ 00044274     LIBCMT:winapinls.obj
 0002:00007280       ??_C@_1M@NDPIFLFI@?$AAs?$AAe?$AA?9?$AAn?$AAo?$AA?$AA@ 00044280     LIBCMT:winapinls.obj
 0002:0000728c       ??_C@_1M@DANKKHJ@?$AAs?$AAe?$AA?9?$AAs?$AAe?$AA?$AA@ 0004428c     LIBCMT:winapinls.obj
 0002:00007298       ??_C@_1M@PNBLONPJ@?$AAs?$AAk?$AA?9?$AAs?$AAk?$AA?$AA@ 00044298     LIBCMT:winapinls.obj
 0002:000072a4       ??_C@_1M@LFMODOAL@?$AAs?$AAl?$AA?9?$AAs?$AAi?$AA?$AA@ 000442a4     LIBCMT:winapinls.obj
 0002:000072b0       ??_C@_1O@DFKOMPG@?$AAs?$AAm?$AAa?$AA?9?$AAn?$AAo?$AA?$AA@ 000442b0     LIBCMT:winapinls.obj
 0002:000072c0       ??_C@_1O@NDKPBNNH@?$AAs?$AAm?$AAa?$AA?9?$AAs?$AAe?$AA?$AA@ 000442c0     LIBCMT:winapinls.obj
 0002:000072d0       ??_C@_1O@PLLKBHAB@?$AAs?$AAm?$AAj?$AA?9?$AAn?$AAo?$AA?$AA@ 000442d0     LIBCMT:winapinls.obj
 0002:000072e0       ??_C@_1O@CLEPOGCA@?$AAs?$AAm?$AAj?$AA?9?$AAs?$AAe?$AA?$AA@ 000442e0     LIBCMT:winapinls.obj
 0002:000072f0       ??_C@_1O@DLGJGKMK@?$AAs?$AAm?$AAn?$AA?9?$AAf?$AAi?$AA?$AA@ 000442f0     LIBCMT:winapinls.obj
 0002:00007300       ??_C@_1O@OJDJGAJC@?$AAs?$AAm?$AAs?$AA?9?$AAf?$AAi?$AA?$AA@ 00044300     LIBCMT:winapinls.obj
 0002:00007310       ??_C@_1M@BOFOGHPB@?$AAs?$AAq?$AA?9?$AAa?$AAl?$AA?$AA@ 00044310     LIBCMT:winapinls.obj
 0002:0000731c       ??_C@_1BG@LJBBIPGB@?$AAs?$AAr?$AA?9?$AAb?$AAa?$AA?9?$AAc?$AAy?$AAr?$AAl?$AA?$AA@ 0004431c     LIBCMT:winapinls.obj
 0002:00007334       ??_C@_1BG@JLBENFOE@?$AAs?$AAr?$AA?9?$AAb?$AAa?$AA?9?$AAl?$AAa?$AAt?$AAn?$AA?$AA@ 00044334     LIBCMT:winapinls.obj
 0002:0000734c       ??_C@_1BG@KODPNHE@?$AAs?$AAr?$AA?9?$AAs?$AAp?$AA?9?$AAc?$AAy?$AAr?$AAl?$AA?$AA@ 0004434c     LIBCMT:winapinls.obj
 0002:00007364       ??_C@_1BG@CIOGKHPB@?$AAs?$AAr?$AA?9?$AAs?$AAp?$AA?9?$AAl?$AAa?$AAt?$AAn?$AA?$AA@ 00044364     LIBCMT:winapinls.obj
 0002:0000737c       ??_C@_1M@NGFJLMAC@?$AAs?$AAv?$AA?9?$AAf?$AAi?$AA?$AA@ 0004437c     LIBCMT:winapinls.obj
 0002:00007388       ??_C@_1M@MPJEJAJC@?$AAs?$AAv?$AA?9?$AAs?$AAe?$AA?$AA@ 00044388     LIBCMT:winapinls.obj
 0002:00007394       ??_C@_1M@MPNDHLFK@?$AAs?$AAw?$AA?9?$AAk?$AAe?$AA?$AA@ 00044394     LIBCMT:winapinls.obj
 0002:000073a0       ??_C@_1O@KOHBJJI@?$AAs?$AAy?$AAr?$AA?9?$AAs?$AAy?$AA?$AA@ 000443a0     LIBCMT:winapinls.obj
 0002:000073b0       ??_C@_1M@LDCEFHA@?$AAt?$AAa?$AA?9?$AAi?$AAn?$AA?$AA@ 000443b0     LIBCMT:winapinls.obj
 0002:000073bc       ??_C@_1M@CNJOFAK@?$AAt?$AAe?$AA?9?$AAi?$AAn?$AA?$AA@ 000443bc     LIBCMT:winapinls.obj
 0002:000073c8       ??_C@_1M@GNAECACD@?$AAt?$AAh?$AA?9?$AAt?$AAh?$AA?$AA@ 000443c8     LIBCMT:winapinls.obj
 0002:000073d4       ??_C@_1M@CHBIHOJO@?$AAt?$AAn?$AA?9?$AAz?$AAa?$AA?$AA@ 000443d4     LIBCMT:winapinls.obj
 0002:000073e0       ??_C@_1M@GCCMIGPJ@?$AAt?$AAr?$AA?9?$AAt?$AAr?$AA?$AA@ 000443e0     LIBCMT:winapinls.obj
 0002:000073ec       ??_C@_1M@CELMCNBK@?$AAt?$AAt?$AA?9?$AAr?$AAu?$AA?$AA@ 000443ec     LIBCMT:winapinls.obj
 0002:000073f8       ??_C@_1M@KLMCELGA@?$AAu?$AAk?$AA?9?$AAu?$AAa?$AA?$AA@ 000443f8     LIBCMT:winapinls.obj
 0002:00007404       ??_C@_1M@EPAJJAJF@?$AAu?$AAr?$AA?9?$AAp?$AAk?$AA?$AA@ 00044404     LIBCMT:winapinls.obj
 0002:00007410       ??_C@_1BG@GEGPMCDJ@?$AAu?$AAz?$AA?9?$AAu?$AAz?$AA?9?$AAc?$AAy?$AAr?$AAl?$AA?$AA@ 00044410     LIBCMT:winapinls.obj
 0002:00007428       ??_C@_1BG@EGGKJILM@?$AAu?$AAz?$AA?9?$AAu?$AAz?$AA?9?$AAl?$AAa?$AAt?$AAn?$AA?$AA@ 00044428     LIBCMT:winapinls.obj
 0002:00007440       ??_C@_1M@GFOCLFF@?$AAv?$AAi?$AA?9?$AAv?$AAn?$AA?$AA@ 00044440     LIBCMT:winapinls.obj
 0002:0000744c       ??_C@_1M@CPAMEDFI@?$AAx?$AAh?$AA?9?$AAz?$AAa?$AA?$AA@ 0004444c     LIBCMT:winapinls.obj
 0002:00007458       ??_C@_1O@EBKIFIGN@?$AAz?$AAh?$AA?9?$AAc?$AAh?$AAs?$AA?$AA@ 00044458     LIBCMT:winapinls.obj
 0002:00007468       ??_C@_1O@NMHPGANE@?$AAz?$AAh?$AA?9?$AAc?$AAh?$AAt?$AA?$AA@ 00044468     LIBCMT:winapinls.obj
 0002:00007478       ??_C@_1M@LPINJOMC@?$AAz?$AAh?$AA?9?$AAc?$AAn?$AA?$AA@ 00044478     LIBCMT:winapinls.obj
 0002:00007484       ??_C@_1M@OCJEJODD@?$AAz?$AAh?$AA?9?$AAh?$AAk?$AA?$AA@ 00044484     LIBCMT:winapinls.obj
 0002:00007490       ??_C@_1M@DNDLJINH@?$AAz?$AAh?$AA?9?$AAm?$AAo?$AA?$AA@ 00044490     LIBCMT:winapinls.obj
 0002:0000749c       ??_C@_1M@MBFDNDND@?$AAz?$AAh?$AA?9?$AAs?$AAg?$AA?$AA@ 0004449c     LIBCMT:winapinls.obj
 0002:000074a8       ??_C@_1M@IMEPLEPE@?$AAz?$AAh?$AA?9?$AAt?$AAw?$AA?$AA@ 000444a8     LIBCMT:winapinls.obj
 0002:000074b4       ??_C@_1M@BBGHNHJP@?$AAz?$AAu?$AA?9?$AAz?$AAa?$AA?$AA@ 000444b4     LIBCMT:winapinls.obj
 0002:000074c0       __newctype                 000444c0     LIBCMT:ctype.obj
 0002:000077c0       _wctype                    000447c0     LIBCMT:ctype.obj
 0002:000079c8       __newclmap                 000449c8     LIBCMT:ctype.obj
 0002:00007b48       __newcumap                 00044b48     LIBCMT:ctype.obj
 0002:00007cc8       ??_C@_1BO@EKKELDCK@?$AAG?$AAe?$AAt?$AAM?$AAo?$AAd?$AAu?$AAl?$AAe?$AAN?$AAa?$AAm?$AAe?$AAA?$AA?$AA@ 00044cc8     LIBCMT:winapisupp.obj
 0002:00007ce8       ??_C@_1CG@LBMJDFHI@?$AAG?$AAe?$AAt?$AAM?$AAo?$AAd?$AAu?$AAl?$AAe?$AAF?$AAi?$AAl?$AAe?$AAN?$AAa?$AAm?$AAe?$AAA?$AA?$AA@ 00044ce8     LIBCMT:winapisupp.obj
 0002:00007d10       ??_C@_1CI@DNEFOGLH@?$AAG?$AAe?$AAt?$AAC?$AAu?$AAr?$AAr?$AAe?$AAn?$AAt?$AAP?$AAa?$AAc?$AAk?$AAa?$AAg?$AAe?$AAI?$AAd?$AA?$AA@ 00044d10     LIBCMT:winapisupp.obj
 0002:00007d38       ??_C@_1BM@IGNHELKG@?$AAL?$AAC?$AAM?$AAa?$AAp?$AAS?$AAt?$AAr?$AAi?$AAn?$AAg?$AAE?$AAx?$AA?$AA@ 00044d38     LIBCMT:winapisupp.obj
 0002:00007d54       ??_C@_1CE@POFFBFHC@?$AAI?$AAs?$AAV?$AAa?$AAl?$AAi?$AAd?$AAL?$AAo?$AAc?$AAa?$AAl?$AAe?$AAN?$AAa?$AAm?$AAe?$AA?$AA@ 00044d54     LIBCMT:winapisupp.obj
 0002:00007d78       ??_C@_1DC@HAOGHGIO@?$AAG?$AAe?$AAt?$AAU?$AAs?$AAe?$AAr?$AAD?$AAe?$AAf?$AAa?$AAu?$AAl?$AAt?$AAL?$AAo?$AAc?$AAa?$AAl?$AAe?$AAN?$AAa?$AAm?$AAe?$AA?$AA@ 00044d78     LIBCMT:winapisupp.obj
 0002:00007dac       ??_C@_1CA@HLJLELIJ@?$AAG?$AAe?$AAt?$AAT?$AAi?$AAm?$AAe?$AAF?$AAo?$AAr?$AAm?$AAa?$AAt?$AAE?$AAx?$AA?$AA@ 00044dac     LIBCMT:winapisupp.obj
 0002:00007dcc       ??_C@_1CA@FKIPKEPK@?$AAG?$AAe?$AAt?$AAL?$AAo?$AAc?$AAa?$AAl?$AAe?$AAI?$AAn?$AAf?$AAo?$AAE?$AAx?$AA?$AA@ 00044dcc     LIBCMT:winapisupp.obj
 0002:00007dec       ??_C@_1CA@EFICEMO@?$AAG?$AAe?$AAt?$AAD?$AAa?$AAt?$AAe?$AAF?$AAo?$AAr?$AAm?$AAa?$AAt?$AAE?$AAx?$AA?$AA@ 00044dec     LIBCMT:winapisupp.obj
 0002:00007e0c       ??_C@_1CA@CJFOHLKB@?$AAC?$AAo?$AAm?$AAp?$AAa?$AAr?$AAe?$AAS?$AAt?$AAr?$AAi?$AAn?$AAg?$AAE?$AAx?$AA?$AA@ 00044e0c     LIBCMT:winapisupp.obj
 0002:00007e2c       ??_C@_1CI@MDHAEDPB@?$AAE?$AAn?$AAu?$AAm?$AAS?$AAy?$AAs?$AAt?$AAe?$AAm?$AAL?$AAo?$AAc?$AAa?$AAl?$AAe?$AAs?$AAE?$AAx?$AA?$AA@ 00044e2c     LIBCMT:winapisupp.obj
 0002:00007e54       ??_C@_1DC@MFPENCGB@?$AAS?$AAe?$AAt?$AAD?$AAe?$AAf?$AAa?$AAu?$AAl?$AAt?$AAD?$AAl?$AAl?$AAD?$AAi?$AAr?$AAe?$AAc?$AAt?$AAo?$AAr?$AAi?$AAe?$AAs?$AA?$AA@ 00044e54     LIBCMT:winapisupp.obj
 0002:00007e88       ??_C@_1CI@LCLNPOGL@?$AAC?$AAr?$AAe?$AAa?$AAt?$AAe?$AAS?$AAy?$AAm?$AAb?$AAo?$AAl?$AAi?$AAc?$AAL?$AAi?$AAn?$AAk?$AAW?$AA?$AA@ 00044e88     LIBCMT:winapisupp.obj
 0002:00007eb0       ??_C@_1DO@OHPGNBAN@?$AAG?$AAe?$AAt?$AAL?$AAo?$AAg?$AAi?$AAc?$AAa?$AAl?$AAP?$AAr?$AAo?$AAc?$AAe?$AAs?$AAs?$AAo?$AAr?$AAI?$AAn?$AAf?$AAo?$AAr?$AAm?$AAa?$AAt?$AAi?$AAo?$AAn?$AA?$AA@ 00044eb0     LIBCMT:winapisupp.obj
 0002:00007ef0       ??_C@_1DE@FCNLCJI@?$AAG?$AAe?$AAt?$AAC?$AAu?$AAr?$AAr?$AAe?$AAn?$AAt?$AAP?$AAr?$AAo?$AAc?$AAe?$AAs?$AAs?$AAo?$AAr?$AAN?$AAu?$AAm?$AAb?$AAe?$AAr?$AA?$AA@ 00044ef0     LIBCMT:winapisupp.obj
 0002:00007f24       ??_C@_1DO@ECHHMHLF@?$AAF?$AAr?$AAe?$AAe?$AAL?$AAi?$AAb?$AAr?$AAa?$AAr?$AAy?$AAW?$AAh?$AAe?$AAn?$AAC?$AAa?$AAl?$AAl?$AAb?$AAa?$AAc?$AAk?$AAR?$AAe?$AAt?$AAu?$AAr?$AAn?$AAs?$AA?$AA@ 00044f24     LIBCMT:winapisupp.obj
 0002:00007f64       ??_C@_1DC@EDGPFKND@?$AAF?$AAl?$AAu?$AAs?$AAh?$AAP?$AAr?$AAo?$AAc?$AAe?$AAs?$AAs?$AAW?$AAr?$AAi?$AAt?$AAe?$AAB?$AAu?$AAf?$AAf?$AAe?$AAr?$AAs?$AA?$AA@ 00044f64     LIBCMT:winapisupp.obj
 0002:00007f98       ??_C@_1CI@NIFJMODL@?$AAC?$AAl?$AAo?$AAs?$AAe?$AAT?$AAh?$AAr?$AAe?$AAa?$AAd?$AAp?$AAo?$AAo?$AAl?$AAW?$AAa?$AAi?$AAt?$AA?$AA@ 00044f98     LIBCMT:winapisupp.obj
 0002:00007fc0       ??_C@_1CE@FBCGAPNE@?$AAS?$AAe?$AAt?$AAT?$AAh?$AAr?$AAe?$AAa?$AAd?$AAp?$AAo?$AAo?$AAl?$AAW?$AAa?$AAi?$AAt?$AA?$AA@ 00044fc0     LIBCMT:winapisupp.obj
 0002:00007fe4       ??_C@_1CK@LECCJDJK@?$AAC?$AAr?$AAe?$AAa?$AAt?$AAe?$AAT?$AAh?$AAr?$AAe?$AAa?$AAd?$AAp?$AAo?$AAo?$AAl?$AAW?$AAa?$AAi?$AAt?$AA?$AA@ 00044fe4     LIBCMT:winapisupp.obj
 0002:00008010       ??_C@_1CK@KJNBPNAB@?$AAC?$AAl?$AAo?$AAs?$AAe?$AAT?$AAh?$AAr?$AAe?$AAa?$AAd?$AAp?$AAo?$AAo?$AAl?$AAT?$AAi?$AAm?$AAe?$AAr?$AA?$AA@ 00045010     LIBCMT:winapisupp.obj
 0002:00008040       ??_C@_1EA@BNIELKMJ@?$AAW?$AAa?$AAi?$AAt?$AAF?$AAo?$AAr?$AAT?$AAh?$AAr?$AAe?$AAa?$AAd?$AAp?$AAo?$AAo?$AAl?$AAT?$AAi?$AAm?$AAe?$AAr?$AAC?$AAa?$AAl?$AAl?$AAb?$AAa?$AAc?$AAk?$AAs?$AA?$AA@ 00045040     LIBCMT:winapisupp.obj
 0002:00008080       ??_C@_1CG@JMFEGJHL@?$AAS?$AAe?$AAt?$AAT?$AAh?$AAr?$AAe?$AAa?$AAd?$AAp?$AAo?$AAo?$AAl?$AAT?$AAi?$AAm?$AAe?$AAr?$AA?$AA@ 00045080     LIBCMT:winapisupp.obj
 0002:000080a8       ??_C@_1CM@LBHDBJL@?$AAC?$AAr?$AAe?$AAa?$AAt?$AAe?$AAT?$AAh?$AAr?$AAe?$AAa?$AAd?$AAp?$AAo?$AAo?$AAl?$AAT?$AAi?$AAm?$AAe?$AAr?$AA?$AA@ 000450a8     LIBCMT:winapisupp.obj
 0002:000080d4       ??_C@_1DA@CMOPEHAI@?$AAS?$AAe?$AAt?$AAT?$AAh?$AAr?$AAe?$AAa?$AAd?$AAS?$AAt?$AAa?$AAc?$AAk?$AAG?$AAu?$AAa?$AAr?$AAa?$AAn?$AAt?$AAe?$AAe?$AA?$AA@ 000450d4     LIBCMT:winapisupp.obj
 0002:00008104       ??_C@_1CG@HKABEFML@?$AAC?$AAr?$AAe?$AAa?$AAt?$AAe?$AAS?$AAe?$AAm?$AAa?$AAp?$AAh?$AAo?$AAr?$AAe?$AAE?$AAx?$AAW?$AA?$AA@ 00045104     LIBCMT:winapisupp.obj
 0002:0000812c       ??_C@_1CI@MGCFFCKM@?$AAI?$AAn?$AAi?$AAt?$AAO?$AAn?$AAc?$AAe?$AAE?$AAx?$AAe?$AAc?$AAu?$AAt?$AAe?$AAO?$AAn?$AAc?$AAe?$AA?$AA@ 0004512c     LIBCMT:winapisupp.obj
 0002:00008154       ??_C@_1DI@PGKPCDF@?$AAI?$AAn?$AAi?$AAt?$AAi?$AAa?$AAl?$AAi?$AAz?$AAe?$AAC?$AAr?$AAi?$AAt?$AAi?$AAc?$AAa?$AAl?$AAS?$AAe?$AAc?$AAt?$AAi?$AAo?$AAn?$AAE?$AAx?$AA?$AA@ 00045154     LIBCMT:winapisupp.obj
 0002:0000818c       ??_C@_1BI@POMEKMAM@?$AAF?$AAl?$AAs?$AAS?$AAe?$AAt?$AAV?$AAa?$AAl?$AAu?$AAe?$AA?$AA@ 0004518c     LIBCMT:winapisupp.obj
 0002:000081a4       ??_C@_1BI@NLMPCHBC@?$AAF?$AAl?$AAs?$AAG?$AAe?$AAt?$AAV?$AAa?$AAl?$AAu?$AAe?$AA?$AA@ 000451a4     LIBCMT:winapisupp.obj
 0002:000081bc       ??_C@_1BA@LCEHBOGG@?$AAF?$AAl?$AAs?$AAF?$AAr?$AAe?$AAe?$AA?$AA@ 000451bc     LIBCMT:winapisupp.obj
 0002:000081cc       ??_C@_1BC@BDBAHLHB@?$AAF?$AAl?$AAs?$AAA?$AAl?$AAl?$AAo?$AAc?$AA?$AA@ 000451cc     LIBCMT:winapisupp.obj
 0002:000081e0       __rglangidNotDefault       000451e0     LIBCMT:getqloc_downlevel.obj
 0002:000081f4       ??_C@_17DNCLJFIF@?$AAA?$AAC?$AAP?$AA?$AA@ 000451f4     LIBCMT:getqloc_downlevel.obj
 0002:000081fc       ??_C@_17CIKBIHLH@?$AAO?$AAC?$AAP?$AA?$AA@ 000451fc     LIBCMT:getqloc_downlevel.obj
 0002:00008204       ??_C@_1BC@LLOKLNP@?$AAa?$AAm?$AAe?$AAr?$AAi?$AAc?$AAa?$AAn?$AA?$AA@ 00045204     LIBCMT:getqloc.obj
 0002:00008218       ??_C@_1CC@HEIGCDGG@?$AAa?$AAm?$AAe?$AAr?$AAi?$AAc?$AAa?$AAn?$AA?5?$AAe?$AAn?$AAg?$AAl?$AAi?$AAs?$AAh?$AA?$AA@ 00045218     LIBCMT:getqloc.obj
 0002:0000823c       ??_C@_1CC@IHCNOMIN@?$AAa?$AAm?$AAe?$AAr?$AAi?$AAc?$AAa?$AAn?$AA?9?$AAe?$AAn?$AAg?$AAl?$AAi?$AAs?$AAh?$AA?$AA@ 0004523c     LIBCMT:getqloc.obj
 0002:00008260       ??_C@_1BG@GKAGPCGG@?$AAa?$AAu?$AAs?$AAt?$AAr?$AAa?$AAl?$AAi?$AAa?$AAn?$AA?$AA@ 00045260     LIBCMT:getqloc.obj
 0002:00008278       ??_C@_1BA@GMENCENF@?$AAb?$AAe?$AAl?$AAg?$AAi?$AAa?$AAn?$AA?$AA@ 00045278     LIBCMT:getqloc.obj
 0002:00008288       ??_C@_1BC@PJMIIAAN@?$AAc?$AAa?$AAn?$AAa?$AAd?$AAi?$AAa?$AAn?$AA?$AA@ 00045288     LIBCMT:getqloc.obj
 0002:0000829c       ??_C@_17NOIMNFBF@?$AAc?$AAh?$AAh?$AA?$AA@ 0004529c     LIBCMT:getqloc.obj
 0002:000082a4       ??_C@_17GGDALCHA@?$AAc?$AAh?$AAi?$AA?$AA@ 000452a4     LIBCMT:getqloc.obj
 0002:000082ac       ??_C@_1BA@NPNJKIBL@?$AAc?$AAh?$AAi?$AAn?$AAe?$AAs?$AAe?$AA?$AA@ 000452ac     LIBCMT:getqloc.obj
 0002:000082bc       ??_C@_1CC@DINBAMMJ@?$AAc?$AAh?$AAi?$AAn?$AAe?$AAs?$AAe?$AA?9?$AAh?$AAo?$AAn?$AAg?$AAk?$AAo?$AAn?$AAg?$AA?$AA@ 000452bc     LIBCMT:getqloc.obj
 0002:000082e0       ??_C@_1CG@IOBJPACO@?$AAc?$AAh?$AAi?$AAn?$AAe?$AAs?$AAe?$AA?9?$AAs?$AAi?$AAm?$AAp?$AAl?$AAi?$AAf?$AAi?$AAe?$AAd?$AA?$AA@ 000452e0     LIBCMT:getqloc.obj
 0002:00008308       ??_C@_1CE@GAJNDCKG@?$AAc?$AAh?$AAi?$AAn?$AAe?$AAs?$AAe?$AA?9?$AAs?$AAi?$AAn?$AAg?$AAa?$AAp?$AAo?$AAr?$AAe?$AA?$AA@ 00045308     LIBCMT:getqloc.obj
 0002:0000832c       ??_C@_1CI@PAJPIOOD@?$AAc?$AAh?$AAi?$AAn?$AAe?$AAs?$AAe?$AA?9?$AAt?$AAr?$AAa?$AAd?$AAi?$AAt?$AAi?$AAo?$AAn?$AAa?$AAl?$AA?$AA@ 0004532c     LIBCMT:getqloc.obj
 0002:00008354       ??_C@_1BM@NILJBMMD@?$AAd?$AAu?$AAt?$AAc?$AAh?$AA?9?$AAb?$AAe?$AAl?$AAg?$AAi?$AAa?$AAn?$AA?$AA@ 00045354     LIBCMT:getqloc.obj
 0002:00008370       ??_C@_1CC@OOJPJNEJ@?$AAe?$AAn?$AAg?$AAl?$AAi?$AAs?$AAh?$AA?9?$AAa?$AAm?$AAe?$AAr?$AAi?$AAc?$AAa?$AAn?$AA?$AA@ 00045370     LIBCMT:getqloc.obj
 0002:00008394       ??_C@_1BI@IOLFEEM@?$AAe?$AAn?$AAg?$AAl?$AAi?$AAs?$AAh?$AA?9?$AAa?$AAu?$AAs?$AA?$AA@ 00045394     LIBCMT:getqloc.obj
 0002:000083ac       ??_C@_1BO@HFFNLENJ@?$AAe?$AAn?$AAg?$AAl?$AAi?$AAs?$AAh?$AA?9?$AAb?$AAe?$AAl?$AAi?$AAz?$AAe?$AA?$AA@ 000453ac     LIBCMT:getqloc.obj
 0002:000083cc       ??_C@_1BI@HAPKJMPO@?$AAe?$AAn?$AAg?$AAl?$AAi?$AAs?$AAh?$AA?9?$AAc?$AAa?$AAn?$AA?$AA@ 000453cc     LIBCMT:getqloc.obj
 0002:000083e4       ??_C@_1CE@HLNDMIOJ@?$AAe?$AAn?$AAg?$AAl?$AAi?$AAs?$AAh?$AA?9?$AAc?$AAa?$AAr?$AAi?$AAb?$AAb?$AAe?$AAa?$AAn?$AA?$AA@ 000453e4     LIBCMT:getqloc.obj
 0002:00008408       ??_C@_1BI@LDHJHHAC@?$AAe?$AAn?$AAg?$AAl?$AAi?$AAs?$AAh?$AA?9?$AAi?$AAr?$AAe?$AA?$AA@ 00045408     LIBCMT:getqloc.obj
 0002:00008420       ??_C@_1CA@NJMMCFOC@?$AAe?$AAn?$AAg?$AAl?$AAi?$AAs?$AAh?$AA?9?$AAj?$AAa?$AAm?$AAa?$AAi?$AAc?$AAa?$AA?$AA@ 00045420     LIBCMT:getqloc.obj
 0002:00008440       ??_C@_1BG@BHJEBBGG@?$AAe?$AAn?$AAg?$AAl?$AAi?$AAs?$AAh?$AA?9?$AAn?$AAz?$AA?$AA@ 00045440     LIBCMT:getqloc.obj
 0002:00008458       ??_C@_1CK@FGOEJJCO@?$AAe?$AAn?$AAg?$AAl?$AAi?$AAs?$AAh?$AA?9?$AAs?$AAo?$AAu?$AAt?$AAh?$AA?5?$AAa?$AAf?$AAr?$AAi?$AAc?$AAa?$AA?$AA@ 00045458     LIBCMT:getqloc.obj
 0002:00008484       ??_C@_1DE@PDBJPCJ@?$AAe?$AAn?$AAg?$AAl?$AAi?$AAs?$AAh?$AA?9?$AAt?$AAr?$AAi?$AAn?$AAi?$AAd?$AAa?$AAd?$AA?5?$AAy?$AA?5?$AAt?$AAo?$AAb?$AAa?$AAg?$AAo?$AA?$AA@ 00045484     LIBCMT:getqloc.obj
 0002:000084b8       ??_C@_1BG@JGCANDME@?$AAe?$AAn?$AAg?$AAl?$AAi?$AAs?$AAh?$AA?9?$AAu?$AAk?$AA?$AA@ 000454b8     LIBCMT:getqloc.obj
 0002:000084d0       ??_C@_1BG@DINKMLE@?$AAe?$AAn?$AAg?$AAl?$AAi?$AAs?$AAh?$AA?9?$AAu?$AAs?$AA?$AA@ 000454d0     LIBCMT:getqloc.obj
 0002:000084e8       ??_C@_1BI@NMFDBHJE@?$AAe?$AAn?$AAg?$AAl?$AAi?$AAs?$AAh?$AA?9?$AAu?$AAs?$AAa?$AA?$AA@ 000454e8     LIBCMT:getqloc.obj
 0002:00008500       ??_C@_1BO@OIHKJKII@?$AAf?$AAr?$AAe?$AAn?$AAc?$AAh?$AA?9?$AAb?$AAe?$AAl?$AAg?$AAi?$AAa?$AAn?$AA?$AA@ 00045500     LIBCMT:getqloc.obj
 0002:00008520       ??_C@_1CA@NKAELJKI@?$AAf?$AAr?$AAe?$AAn?$AAc?$AAh?$AA?9?$AAc?$AAa?$AAn?$AAa?$AAd?$AAi?$AAa?$AAn?$AA?$AA@ 00045520     LIBCMT:getqloc.obj
 0002:00008540       ??_C@_1CE@MGKCNLGN@?$AAf?$AAr?$AAe?$AAn?$AAc?$AAh?$AA?9?$AAl?$AAu?$AAx?$AAe?$AAm?$AAb?$AAo?$AAu?$AAr?$AAg?$AA?$AA@ 00045540     LIBCMT:getqloc.obj
 0002:00008564       ??_C@_1BK@CEGEAILM@?$AAf?$AAr?$AAe?$AAn?$AAc?$AAh?$AA?9?$AAs?$AAw?$AAi?$AAs?$AAs?$AA?$AA@ 00045564     LIBCMT:getqloc.obj
 0002:00008580       ??_C@_1CA@PAFKEOCC@?$AAg?$AAe?$AAr?$AAm?$AAa?$AAn?$AA?9?$AAa?$AAu?$AAs?$AAt?$AAr?$AAi?$AAa?$AAn?$AA?$AA@ 00045580     LIBCMT:getqloc.obj
 0002:000085a0       ??_C@_1CI@HCFHGOFD@?$AAg?$AAe?$AAr?$AAm?$AAa?$AAn?$AA?9?$AAl?$AAi?$AAc?$AAh?$AAt?$AAe?$AAn?$AAs?$AAt?$AAe?$AAi?$AAn?$AA?$AA@ 000455a0     LIBCMT:getqloc.obj
 0002:000085c8       ??_C@_1CE@FEDDNPDG@?$AAg?$AAe?$AAr?$AAm?$AAa?$AAn?$AA?9?$AAl?$AAu?$AAx?$AAe?$AAm?$AAb?$AAo?$AAu?$AAr?$AAg?$AA?$AA@ 000455c8     LIBCMT:getqloc.obj
 0002:000085ec       ??_C@_1BK@LIMINNMN@?$AAg?$AAe?$AAr?$AAm?$AAa?$AAn?$AA?9?$AAs?$AAw?$AAi?$AAs?$AAs?$AA?$AA@ 000455ec     LIBCMT:getqloc.obj
 0002:00008608       ??_C@_1BM@LGMDBEPD@?$AAi?$AAr?$AAi?$AAs?$AAh?$AA?9?$AAe?$AAn?$AAg?$AAl?$AAi?$AAs?$AAh?$AA?$AA@ 00045608     LIBCMT:getqloc.obj
 0002:00008624       ??_C@_1BM@NNCFBAEE@?$AAi?$AAt?$AAa?$AAl?$AAi?$AAa?$AAn?$AA?9?$AAs?$AAw?$AAi?$AAs?$AAs?$AA?$AA@ 00045624     LIBCMT:getqloc.obj
 0002:00008640       ??_C@_1BE@FEDJNPIB@?$AAn?$AAo?$AAr?$AAw?$AAe?$AAg?$AAi?$AAa?$AAn?$AA?$AA@ 00045640     LIBCMT:getqloc.obj
 0002:00008654       ??_C@_1CC@CILKDEIE@?$AAn?$AAo?$AAr?$AAw?$AAe?$AAg?$AAi?$AAa?$AAn?$AA?9?$AAb?$AAo?$AAk?$AAm?$AAa?$AAl?$AA?$AA@ 00045654     LIBCMT:getqloc.obj
 0002:00008678       ??_C@_1CE@DHMMHEPL@?$AAn?$AAo?$AAr?$AAw?$AAe?$AAg?$AAi?$AAa?$AAn?$AA?9?$AAn?$AAy?$AAn?$AAo?$AAr?$AAs?$AAk?$AA?$AA@ 00045678     LIBCMT:getqloc.obj
 0002:0000869c       ??_C@_1CK@OPNMHECD@?$AAp?$AAo?$AAr?$AAt?$AAu?$AAg?$AAu?$AAe?$AAs?$AAe?$AA?9?$AAb?$AAr?$AAa?$AAz?$AAi?$AAl?$AAi?$AAa?$AAn?$AA?$AA@ 0004569c     LIBCMT:getqloc.obj
 0002:000086c8       ??_C@_1CE@KEEHCDB@?$AAs?$AAp?$AAa?$AAn?$AAi?$AAs?$AAh?$AA?9?$AAa?$AAr?$AAg?$AAe?$AAn?$AAt?$AAi?$AAn?$AAa?$AA?$AA@ 000456c8     LIBCMT:getqloc.obj
 0002:000086ec       ??_C@_1CA@GIAOLHJD@?$AAs?$AAp?$AAa?$AAn?$AAi?$AAs?$AAh?$AA?9?$AAb?$AAo?$AAl?$AAi?$AAv?$AAi?$AAa?$AA?$AA@ 000456ec     LIBCMT:getqloc.obj
 0002:0000870c       ??_C@_1BM@OJNDFNPD@?$AAs?$AAp?$AAa?$AAn?$AAi?$AAs?$AAh?$AA?9?$AAc?$AAh?$AAi?$AAl?$AAe?$AA?$AA@ 0004570c     LIBCMT:getqloc.obj
 0002:00008728       ??_C@_1CC@OCOLPALL@?$AAs?$AAp?$AAa?$AAn?$AAi?$AAs?$AAh?$AA?9?$AAc?$AAo?$AAl?$AAo?$AAm?$AAb?$AAi?$AAa?$AA?$AA@ 00045728     LIBCMT:getqloc.obj
 0002:0000874c       ??_C@_1CG@BPOFMKBB@?$AAs?$AAp?$AAa?$AAn?$AAi?$AAs?$AAh?$AA?9?$AAc?$AAo?$AAs?$AAt?$AAa?$AA?5?$AAr?$AAi?$AAc?$AAa?$AA?$AA@ 0004574c     LIBCMT:getqloc.obj
 0002:00008774       ??_C@_1DG@IGOBAPBB@?$AAs?$AAp?$AAa?$AAn?$AAi?$AAs?$AAh?$AA?9?$AAd?$AAo?$AAm?$AAi?$AAn?$AAi?$AAc?$AAa?$AAn?$AA?5?$AAr?$AAe?$AAp?$AAu?$AAb?$AAl?$AAi?$AAc?$AA?$AA@ 00045774     LIBCMT:getqloc.obj
 0002:000087ac       ??_C@_1CA@JHAPGEGI@?$AAs?$AAp?$AAa?$AAn?$AAi?$AAs?$AAh?$AA?9?$AAe?$AAc?$AAu?$AAa?$AAd?$AAo?$AAr?$AA?$AA@ 000457ac     LIBCMT:getqloc.obj
 0002:000087cc       ??_C@_1CI@LAPALJPP@?$AAs?$AAp?$AAa?$AAn?$AAi?$AAs?$AAh?$AA?9?$AAe?$AAl?$AA?5?$AAs?$AAa?$AAl?$AAv?$AAa?$AAd?$AAo?$AAr?$AA?$AA@ 000457cc     LIBCMT:getqloc.obj
 0002:000087f4       ??_C@_1CE@PDGBOFOM@?$AAs?$AAp?$AAa?$AAn?$AAi?$AAs?$AAh?$AA?9?$AAg?$AAu?$AAa?$AAt?$AAe?$AAm?$AAa?$AAl?$AAa?$AA?$AA@ 000457f4     LIBCMT:getqloc.obj
 0002:00008818       ??_C@_1CC@NBEBAODI@?$AAs?$AAp?$AAa?$AAn?$AAi?$AAs?$AAh?$AA?9?$AAh?$AAo?$AAn?$AAd?$AAu?$AAr?$AAa?$AAs?$AA?$AA@ 00045818     LIBCMT:getqloc.obj
 0002:0000883c       ??_C@_1CA@LLKGHBMF@?$AAs?$AAp?$AAa?$AAn?$AAi?$AAs?$AAh?$AA?9?$AAm?$AAe?$AAx?$AAi?$AAc?$AAa?$AAn?$AA?$AA@ 0004583c     LIBCMT:getqloc.obj
 0002:0000885c       ??_C@_1BO@LKNDOIGD@?$AAs?$AAp?$AAa?$AAn?$AAi?$AAs?$AAh?$AA?9?$AAm?$AAo?$AAd?$AAe?$AAr?$AAn?$AA?$AA@ 0004585c     LIBCMT:getqloc.obj
 0002:0000887c       ??_C@_1CE@NMDMOEEB@?$AAs?$AAp?$AAa?$AAn?$AAi?$AAs?$AAh?$AA?9?$AAn?$AAi?$AAc?$AAa?$AAr?$AAa?$AAg?$AAu?$AAa?$AA?$AA@ 0004587c     LIBCMT:getqloc.obj
 0002:000088a0       ??_C@_1BO@LLCBEJGB@?$AAs?$AAp?$AAa?$AAn?$AAi?$AAs?$AAh?$AA?9?$AAp?$AAa?$AAn?$AAa?$AAm?$AAa?$AA?$AA@ 000458a0     LIBCMT:getqloc.obj
 0002:000088c0       ??_C@_1CC@FKPGGIHO@?$AAs?$AAp?$AAa?$AAn?$AAi?$AAs?$AAh?$AA?9?$AAp?$AAa?$AAr?$AAa?$AAg?$AAu?$AAa?$AAy?$AA?$AA@ 000458c0     LIBCMT:getqloc.obj
 0002:000088e4       ??_C@_1BK@CDEIHOOP@?$AAs?$AAp?$AAa?$AAn?$AAi?$AAs?$AAh?$AA?9?$AAp?$AAe?$AAr?$AAu?$AA?$AA@ 000458e4     LIBCMT:getqloc.obj
 0002:00008900       ??_C@_1CI@GAHAKKGP@?$AAs?$AAp?$AAa?$AAn?$AAi?$AAs?$AAh?$AA?9?$AAp?$AAu?$AAe?$AAr?$AAt?$AAo?$AA?5?$AAr?$AAi?$AAc?$AAo?$AA?$AA@ 00045900     LIBCMT:getqloc.obj
 0002:00008928       ??_C@_1CA@NKJBCAGP@?$AAs?$AAp?$AAa?$AAn?$AAi?$AAs?$AAh?$AA?9?$AAu?$AAr?$AAu?$AAg?$AAu?$AAa?$AAy?$AA?$AA@ 00045928     LIBCMT:getqloc.obj
 0002:00008948       ??_C@_1CE@ODILCONM@?$AAs?$AAp?$AAa?$AAn?$AAi?$AAs?$AAh?$AA?9?$AAv?$AAe?$AAn?$AAe?$AAz?$AAu?$AAe?$AAl?$AAa?$AA?$AA@ 00045948     LIBCMT:getqloc.obj
 0002:0000896c       ??_C@_1CA@OBNMCGFO@?$AAs?$AAw?$AAe?$AAd?$AAi?$AAs?$AAh?$AA?9?$AAf?$AAi?$AAn?$AAl?$AAa?$AAn?$AAd?$AA?$AA@ 0004596c     LIBCMT:getqloc.obj
 0002:0000898c       ??_C@_1M@PIPDDPPI@?$AAs?$AAw?$AAi?$AAs?$AAs?$AA?$AA@ 0004598c     LIBCMT:getqloc.obj
 0002:00008998       ??_C@_15GMFIMNFM@?$AAu?$AAs?$AA?$AA@ 00045998     LIBCMT:getqloc.obj
 0002:000089a0       ??_C@_17HAEBFAGL@?$AAu?$AAs?$AAa?$AA?$AA@ 000459a0     LIBCMT:getqloc.obj
 0002:000089a8       __rg_language              000459a8     LIBCMT:getqloc.obj
 0002:00008cb4       ??_C@_1BA@DPFJEPHB@?$AAa?$AAm?$AAe?$AAr?$AAi?$AAc?$AAa?$AA?$AA@ 00045cb4     LIBCMT:getqloc.obj
 0002:00008cc4       ??_C@_1BA@ELOGGFK@?$AAb?$AAr?$AAi?$AAt?$AAa?$AAi?$AAn?$AA?$AA@ 00045cc4     LIBCMT:getqloc.obj
 0002:00008cd4       ??_C@_1M@GHBGIGDA@?$AAc?$AAh?$AAi?$AAn?$AAa?$AA?$AA@ 00045cd4     LIBCMT:getqloc.obj
 0002:00008ce0       ??_C@_1M@NCHEJOPO@?$AAc?$AAz?$AAe?$AAc?$AAh?$AA?$AA@ 00045ce0     LIBCMT:getqloc.obj
 0002:00008cec       ??_C@_1BA@BKPAPBLA@?$AAe?$AAn?$AAg?$AAl?$AAa?$AAn?$AAd?$AA?$AA@ 00045cec     LIBCMT:getqloc.obj
 0002:00008cfc       ??_C@_1BM@HKBCKIPC@?$AAg?$AAr?$AAe?$AAa?$AAt?$AA?5?$AAb?$AAr?$AAi?$AAt?$AAa?$AAi?$AAn?$AA?$AA@ 00045cfc     LIBCMT:getqloc.obj
 0002:00008d18       ??_C@_1BA@PPCHPGJB@?$AAh?$AAo?$AAl?$AAl?$AAa?$AAn?$AAd?$AA?$AA@ 00045d18     LIBCMT:getqloc.obj
 0002:00008d28       ??_C@_1BE@JBMPEGDG@?$AAh?$AAo?$AAn?$AAg?$AA?9?$AAk?$AAo?$AAn?$AAg?$AA?$AA@ 00045d28     LIBCMT:getqloc.obj
 0002:00008d3c       ??_C@_1BI@KOELBBPJ@?$AAn?$AAe?$AAw?$AA?9?$AAz?$AAe?$AAa?$AAl?$AAa?$AAn?$AAd?$AA?$AA@ 00045d3c     LIBCMT:getqloc.obj
 0002:00008d54       ??_C@_15HIEBHAIO@?$AAn?$AAz?$AA?$AA@ 00045d54     LIBCMT:getqloc.obj
 0002:00008d5c       ??_C@_1BC@CHBCPFPI@?$AAp?$AAr?$AA?5?$AAc?$AAh?$AAi?$AAn?$AAa?$AA?$AA@ 00045d5c     LIBCMT:getqloc.obj
 0002:00008d70       ??_C@_1BC@JAOIIFKD@?$AAp?$AAr?$AA?9?$AAc?$AAh?$AAi?$AAn?$AAa?$AA?$AA@ 00045d70     LIBCMT:getqloc.obj
 0002:00008d84       ??_C@_1BI@BEHPPHKC@?$AAp?$AAu?$AAe?$AAr?$AAt?$AAo?$AA?9?$AAr?$AAi?$AAc?$AAo?$AA?$AA@ 00045d84     LIBCMT:getqloc.obj
 0002:00008d9c       ??_C@_1O@PAEOFKDI@?$AAs?$AAl?$AAo?$AAv?$AAa?$AAk?$AA?$AA@ 00045d9c     LIBCMT:getqloc.obj
 0002:00008dac       ??_C@_1BK@FIHMCKAM@?$AAs?$AAo?$AAu?$AAt?$AAh?$AA?5?$AAa?$AAf?$AAr?$AAi?$AAc?$AAa?$AA?$AA@ 00045dac     LIBCMT:getqloc.obj
 0002:00008dc8       ??_C@_1BI@NAEOODKB@?$AAs?$AAo?$AAu?$AAt?$AAh?$AA?5?$AAk?$AAo?$AAr?$AAe?$AAa?$AA?$AA@ 00045dc8     LIBCMT:getqloc.obj
 0002:00008de0       ??_C@_1BK@FBDGGIFF@?$AAs?$AAo?$AAu?$AAt?$AAh?$AA?9?$AAa?$AAf?$AAr?$AAi?$AAc?$AAa?$AA?$AA@ 00045de0     LIBCMT:getqloc.obj
 0002:00008dfc       ??_C@_1BI@GHLEJDPK@?$AAs?$AAo?$AAu?$AAt?$AAh?$AA?9?$AAk?$AAo?$AAr?$AAe?$AAa?$AA?$AA@ 00045dfc     LIBCMT:getqloc.obj
 0002:00008e14       ??_C@_1CE@PLHLOMJF@?$AAt?$AAr?$AAi?$AAn?$AAi?$AAd?$AAa?$AAd?$AA?5?$AA?$CG?$AA?5?$AAt?$AAo?$AAb?$AAa?$AAg?$AAo?$AA?$AA@ 00045e14     LIBCMT:getqloc.obj
 0002:00008e38       ??_C@_1BO@MODIMHHI@?$AAu?$AAn?$AAi?$AAt?$AAe?$AAd?$AA?9?$AAk?$AAi?$AAn?$AAg?$AAd?$AAo?$AAm?$AA?$AA@ 00045e38     LIBCMT:getqloc.obj
 0002:00008e58       ??_C@_1BM@FFHJONBJ@?$AAu?$AAn?$AAi?$AAt?$AAe?$AAd?$AA?9?$AAs?$AAt?$AAa?$AAt?$AAe?$AAs?$AA?$AA@ 00045e58     LIBCMT:getqloc.obj
 0002:00008e78       __rg_country               00045e78     LIBCMT:getqloc.obj
 0002:00008f8c       ??_C@_1BI@IENOMFML@?$AAC?$AAO?$AAR?$AAE?$AAD?$AAL?$AAL?$AA?4?$AAD?$AAL?$AAL?$AA?$AA@ 00045f8c     LIBCMT:crtmboxw.obj
 0002:00008fa4       ??_C@_1BI@OGPGOOGK@?$AAM?$AAe?$AAs?$AAs?$AAa?$AAg?$AAe?$AAB?$AAo?$AAx?$AAW?$AA?$AA@ 00045fa4     LIBCMT:crtmboxw.obj
 0002:00008fbc       ??_C@_1CG@MKBKDNCP@?$AAG?$AAe?$AAt?$AAL?$AAa?$AAs?$AAt?$AAA?$AAc?$AAt?$AAi?$AAv?$AAe?$AAP?$AAo?$AAp?$AAu?$AAp?$AA?$AA@ 00045fbc     LIBCMT:crtmboxw.obj
 0002:00008fe4       ??_C@_1CA@HNKPMKAN@?$AAG?$AAe?$AAt?$AAA?$AAc?$AAt?$AAi?$AAv?$AAe?$AAW?$AAi?$AAn?$AAd?$AAo?$AAw?$AA?$AA@ 00045fe4     LIBCMT:crtmboxw.obj
 0002:00009004       ??_C@_1BG@OACMLAMN@?$AAB?$AAC?$AAR?$AAY?$AAP?$AAT?$AA?4?$AAD?$AAL?$AAL?$AA?$AA@ 00046004     LIBCMT:rand_s.obj
 0002:0000901c       ??_C@_0BA@OEECKJGD@BCryptGenRandom?$AA@ 0004601c     LIBCMT:rand_s.obj
 0002:0000902c       ??_C@_06PGGFOGJG@1?$CDSNAN?$AA@ 0004602c     LIBCMT:x10fout.obj
 0002:00009034       ??_C@_05PHHOCPM@1?$CDIND?$AA@ 00046034     LIBCMT:x10fout.obj
 0002:0000903c       ??_C@_05DNEBIAHO@1?$CDINF?$AA@ 0004603c     LIBCMT:x10fout.obj
 0002:00009044       ??_C@_06IMKFLFPG@1?$CDQNAN?$AA@ 00046044     LIBCMT:x10fout.obj
 0002:0000a448       __rtc_iaa                  00047448     LIBCMT:initsect.obj
 0002:0000a54c       __rtc_izz                  0004754c     LIBCMT:initsect.obj
 0002:0000a650       __rtc_taa                  00047650     LIBCMT:initsect.obj
 0002:0000a754       __rtc_tzz                  00047754     LIBCMT:initsect.obj
 0003:00000000       _fltused                   0004a000     LIBCMT:fpinit.obj
 0003:00000004       _ldused                    0004a004     LIBCMT:fpinit.obj
 0003:00000198       _timezone                  0004a198     LIBCMT:timeset.obj
 0003:0000019c       _daylight                  0004a19c     LIBCMT:timeset.obj
 0003:000001a0       _dstbias                   0004a1a0     LIBCMT:timeset.obj
 0003:00000228       _tzname                    0004a228     LIBCMT:timeset.obj
 0003:00000230       _cfltcvt_tab               0004a230     LIBCMT:cmiscdat.obj
 0003:0000025c       __ptmbcinfo                0004a25c     LIBCMT:mbctype.obj
 0003:00000350       _mbctype                   0004a350     LIBCMT:mbctype.obj
 0003:00000458       _mbcasemap                 0004a458     LIBCMT:mbctype.obj
 0003:00000558       __initialmbcinfo           0004a558     LIBCMT:mbctype.obj
 0003:00000780       _d_inf                     0004a780     LIBCMT:util.obj
 0003:00000788       _d_ind                     0004a788     LIBCMT:util.obj
 0003:00000790       _d_max                     0004a790     LIBCMT:util.obj
 0003:00000798       _d_min                     0004a798     LIBCMT:util.obj
 0003:000007a0       _d_mzero                   0004a7a0     LIBCMT:util.obj
 0003:00000890       _iob                       0004a890     LIBCMT:_file.obj
 0003:00000b10       __nullstring               0004ab10     LIBCMT:output.obj
 0003:00000b14       __wnullstring              0004ab14     LIBCMT:output.obj
 0003:00000b18       __security_cookie          0004ab18     LIBCMT:gs_cookie.obj
 0003:00000b1c       __security_cookie_complement 0004ab1c     LIBCMT:gs_cookie.obj
 0003:00000b20       __mb_cur_max               0004ab20     LIBCMT:nlsdata.obj
 0003:00000b24       __wclocalestr              0004ab24     LIBCMT:nlsdata.obj
 0003:00000b28       __lc_time_c                0004ab28     LIBCMT:nlsdata.obj
 0003:00000c90       __initiallocinfo           0004ac90     LIBCMT:nlsdata.obj
 0003:00000d48       __ptlocinfo                0004ad48     LIBCMT:nlsdata.obj
 0003:00000d4c       __initiallocalestructinfo  0004ad4c     LIBCMT:nlsdata.obj
 0003:00000e78       __badioinfo                0004ae78     LIBCMT:ioinit.obj
 0003:00000eb8       __error_mode               0004aeb8     LIBCMT:errmode.obj
 0003:00000ebc       __flsindex                 0004aebc     LIBCMT:tidtable.obj
 0003:00000ec0       _days                      0004aec0     LIBCMT:days.obj
 0003:00000ef4       _lpdays                    0004aef4     LIBCMT:days.obj
 0003:00000f28       __lconv_static_decimal     0004af28     LIBCMT:lconv.obj
 0003:00000f2c       __lconv_static_W_decimal   0004af2c     LIBCMT:lconv.obj
 0003:00000f30       __lconv_c                  0004af30     LIBCMT:lconv.obj
 0003:00000f80       __lconv                    0004af80     LIBCMT:lconv.obj
 0003:00000f84       _pctype                    0004af84     LIBCMT:ctype.obj
 0003:00000f88       _pwctype                   0004af88     LIBCMT:ctype.obj
 0003:00000f8c       _matherr_flag              0004af8c     LIBCMT:matherr.obj
 0003:00000f90       _lookuptrailbytes          0004af90     LIBCMT:read.obj
 0003:000010c0       __abort_behavior           0004b0c0     LIBCMT:abort.obj
 0003:000010c8       _pow10pos                  0004b0c8     LIBCMT:constpow.obj
 0003:00001228       _pow10neg                  0004b228     LIBCMT:constpow.obj
 0003:0000a7f8       __fastflag                 000547f8     LIBCMT:fpinit.obj
 0003:0000a800       _aenvptr                   00054800     LIBCMT:wincrt0.obj
 0003:0000a804       _wenvptr                   00054804     LIBCMT:wincrt0.obj
 0003:0000a808       __pInvalidArgHandler       00054808     LIBCMT:invarg.obj
 0003:0000a8cc       __mbulinfo                 000548cc     LIBCMT:mbctype.obj
 0003:0000a8d8       __mblocalename             000548d8     LIBCMT:mbctype.obj
 0003:0000a8dc       __mbcodepage               000548dc     LIBCMT:mbctype.obj
 0003:0000a8e0       __ismbcodepage             000548e0     LIBCMT:mbctype.obj
 0003:0000a8e4       __locale_changed           000548e4     LIBCMT:wsetloca.obj
 0003:0000a8e8       _cflush                    000548e8     LIBCMT:_file.obj
 0003:0000a8ec       _stdbuf                    000548ec     LIBCMT:_sftbuf.obj
 0003:0000a8f4       _newmode                   000548f4     LIBCMT:_newmode.obj
 0003:0000a8f8       _crtheap                   000548f8     LIBCMT:heapinit.obj
 0003:0000a8fc       ?_pnhHeap@@3P6AHI@ZA       000548fc     LIBCMT:handler.obj
 0003:0000af28       __app_type                 00054f28     LIBCMT:crt0msg.obj
 0003:0000af2c       __argc                     00054f2c     LIBCMT:crt0dat.obj
 0003:0000af30       __argv                     00054f30     LIBCMT:crt0dat.obj
 0003:0000af34       __wargv                    00054f34     LIBCMT:crt0dat.obj
 0003:0000af38       _environ                   00054f38     LIBCMT:crt0dat.obj
 0003:0000af3c       _wenviron                  00054f3c     LIBCMT:crt0dat.obj
 0003:0000af40       _pgmptr                    00054f40     LIBCMT:crt0dat.obj
 0003:0000af44       _wpgmptr                   00054f44     LIBCMT:crt0dat.obj
 0003:0000af48       _C_Exit_Done               00054f48     LIBCMT:crt0dat.obj
 0003:0000af4c       _umaskval                  00054f4c     LIBCMT:crt0dat.obj
 0003:0000af50       _exitflag                  00054f50     LIBCMT:crt0dat.obj
 0003:0000af54       _C_Termination_Done        00054f54     LIBCMT:crt0dat.obj
 0003:0000af58       __winitenv                 00054f58     LIBCMT:crt0dat.obj
 0003:0000af5c       __initenv                  00054f5c     LIBCMT:crt0dat.obj
 0003:0000af60       _acmdln                    00054f60     LIBCMT:crt0dat.obj
 0003:0000af64       _wcmdln                    00054f64     LIBCMT:crt0dat.obj
 0003:0000b080       _maxwait                   00055080     LIBCMT:crtheap.obj
 0003:0000b084       __ioInitOnce               00055084     LIBCMT:ioinit.obj
 0003:0000b190       _outputformat              00055190     LIBCMT:outputformat.obj
 0003:0000b194       __lconv_static_null        00055194     LIBCMT:lconv.obj
 0003:0000b198       __lconv_static_W_null      00055198     LIBCMT:lconv.obj
 0003:0000b1a4       _commode                   000551a4     LIBCMT:ncommode.obj
 0003:0000b1b4       __pPurecall                000551b4     LIBCMT:inithelp.obj
 0003:0000b1c8       ?__pTerminate@@3P6AXXZA    000551c8     LIBCMT:hooks.obj
 0003:0000b1cc       ?__pUnexpected@@3P6AXXZA   000551cc     LIBCMT:hooks.obj
 0003:0000b1d0       ?__pInconsistency@@3P6AXXZA 000551d0     LIBCMT:hooks.obj
 0003:0000b1d4       _fmode                     000551d4     LIBCMT:txtmode.obj
 0003:0000b1e0       encodedKERNEL32Functions   000551e0     <common>
 0003:0000b280       __pioinfo                  00055280     <common>
 0003:0000b3bc       _nhandle                   000553bc     <common>
 0003:0000b3c0       __mbctype_initialized      000553c0     <common>
 0003:0000b3d0       __onexitbegin              000553d0     <common>
 0003:0000b3d4       __onexitend                000553d4     <common>
 0003:0000b3d8       __env_initialized          000553d8     <common>
 0003:0000b3dc       _nstream                   000553dc     <common>
 0003:0000b720       _bufin                     00055720     <common>
 0003:0000c720       __piob                     00056720     <common>
 0003:0000c724       __unguarded_readlc_active  00056724     <common>
 0003:0000c734       __setlc_active             00056734     <common>
 0005:00000000       __IMPORT_DESCRIPTOR_COREDLL 00059000     coredll:COREDLL.dll
 0005:00000014       __IMPORT_DESCRIPTOR_toolhelp 00059014     toolhelp:toolhelp.dll
 0005:00000028       __IMPORT_DESCRIPTOR_WINSOCK 00059028     winsock:WINSOCK.dll
 0005:0000003c       __NULL_IMPORT_DESCRIPTOR   0005903c     coredll:COREDLL.dll
 0005:00000320       __imp_GetLocalTime         00059320     coredll:COREDLL.dll
 0005:00000324       __imp_SystemTimeToFileTime 00059324     coredll:COREDLL.dll
 0005:00000328       __imp_StringCbPrintfW      00059328     coredll:COREDLL.dll
 0005:0000032c       __imp_OutputDebugStringW   0005932c     coredll:COREDLL.dll
 0005:00000330       __imp_GetModuleFileNameW   00059330     coredll:COREDLL.dll
 0005:00000334       __imp_GetLastError         00059334     coredll:COREDLL.dll
 0005:00000338       __imp_OpenProcess          00059338     coredll:COREDLL.dll
 0005:0000033c       __imp_TerminateProcess     0005933c     coredll:COREDLL.dll
 0005:00000340       __imp_CloseHandle          00059340     coredll:COREDLL.dll
 0005:00000344       __imp_ResumeThread         00059344     coredll:COREDLL.dll
 0005:00000348       __imp_SuspendThread        00059348     coredll:COREDLL.dll
 0005:0000034c       __imp_TerminateThread      0005934c     coredll:COREDLL.dll
 0005:00000350       __imp_CeSetThreadPriority  00059350     coredll:COREDLL.dll
 0005:00000354       __imp_CeGetThreadPriority  00059354     coredll:COREDLL.dll
 0005:00000358       __imp_QueryPerformanceFrequency 00059358     coredll:COREDLL.dll
 0005:0000035c       __imp_CreateProcessW       0005935c     coredll:COREDLL.dll
 0005:00000360       __imp_GetThreadTimes       00059360     coredll:COREDLL.dll
 0005:00000364       __imp_GetTickCount         00059364     coredll:COREDLL.dll
 0005:00000368       __imp_SetSystemPowerState  00059368     coredll:COREDLL.dll
 0005:0000036c       __imp_LoadLibraryW         0005936c     coredll:COREDLL.dll
 0005:00000370       __imp_GetProcAddressW      00059370     coredll:COREDLL.dll
 0005:00000374       __imp_GetSystemInfo        00059374     coredll:COREDLL.dll
 0005:00000378       __imp_Sleep                00059378     coredll:COREDLL.dll
 0005:0000037c       __imp_FreeLibrary          0005937c     coredll:COREDLL.dll
 0005:00000380       __imp_EventModify          00059380     coredll:COREDLL.dll
 0005:00000384       __imp_RegOpenKeyExW        00059384     coredll:COREDLL.dll
 0005:00000388       __imp_RegQueryValueExW     00059388     coredll:COREDLL.dll
 0005:0000038c       __imp_RegCloseKey          0005938c     coredll:COREDLL.dll
 0005:00000390       __imp_DeleteCriticalSection 00059390     coredll:COREDLL.dll
 0005:00000394       __imp_CreateEventW         00059394     coredll:COREDLL.dll
 0005:00000398       __imp_EnterCriticalSection 00059398     coredll:COREDLL.dll
 0005:0000039c       __imp_LeaveCriticalSection 0005939c     coredll:COREDLL.dll
 0005:000003a0       __imp_WaitForMultipleObjects 000593a0     coredll:COREDLL.dll
 0005:000003a4       __imp_SetLastError         000593a4     coredll:COREDLL.dll
 0005:000003a8       __imp_DebugActiveProcess   000593a8     coredll:COREDLL.dll
 0005:000003ac       __imp_InitializeCriticalSection 000593ac     coredll:COREDLL.dll
 0005:000003b0       __imp_CreateThread         000593b0     coredll:COREDLL.dll
 0005:000003b4       __imp___crt_fatal          000593b4     coredll:COREDLL.dll
 0005:000003b8       __imp_HeapSize             000593b8     coredll:COREDLL.dll
 0005:000003bc       __imp_CreateFileW          000593bc     coredll:COREDLL.dll
 0005:000003c0       __imp_ReadFile             000593c0     coredll:COREDLL.dll
 0005:000003c4       __imp_CeGenRandom          000593c4     coredll:COREDLL.dll
 0005:000003c8       __imp_GetProcAddressA      000593c8     coredll:COREDLL.dll
 0005:000003cc       __imp_CheckRemoteDebuggerPresent 000593cc     coredll:COREDLL.dll
 0005:000003d0       __imp_IsValidLocale        000593d0     coredll:COREDLL.dll
 0005:000003d4       __imp_EnumSystemLocalesW   000593d4     coredll:COREDLL.dll
 0005:000003d8       __imp_GetLocaleInfoW       000593d8     coredll:COREDLL.dll
 0005:000003dc       __imp_GetUserDefaultLCID   000593dc     coredll:COREDLL.dll
 0005:000003e0       __imp_LoadLibraryExW       000593e0     coredll:COREDLL.dll
 0005:000003e4       __imp_GetModuleHandleW     000593e4     coredll:COREDLL.dll
 0005:000003e8       __imp_CreateSemaphoreW     000593e8     coredll:COREDLL.dll
 0005:000003ec       __imp_InterlockedExchange  000593ec     coredll:COREDLL.dll
 0005:000003f0       __imp_InterlockedCompareExchange 000593f0     coredll:COREDLL.dll
 0005:000003f4       __imp_TlsSetValue          000593f4     coredll:COREDLL.dll
 0005:000003f8       __imp_TlsCall              000593f8     coredll:COREDLL.dll
 0005:000003fc       __imp_LCMapStringEx        000593fc     coredll:COREDLL.dll
 0005:00000400       __imp_IsValidLocaleName    00059400     coredll:COREDLL.dll
 0005:00000404       __imp_GetUserDefaultLocaleName 00059404     coredll:COREDLL.dll
 0005:00000408       __imp_GetTimeFormatEx      00059408     coredll:COREDLL.dll
 0005:0000040c       __imp_GetLocaleInfoEx      0005940c     coredll:COREDLL.dll
 0005:00000410       __imp_GetDateFormatEx      00059410     coredll:COREDLL.dll
 0005:00000414       __imp_EnumSystemLocalesEx  00059414     coredll:COREDLL.dll
 0005:00000418       __imp_SetEndOfFile         00059418     coredll:COREDLL.dll
 0005:0000041c       __imp_CompareStringEx      0005941c     coredll:COREDLL.dll
 0005:00000420       __imp_GetStringTypeW       00059420     coredll:COREDLL.dll
 0005:00000424       __imp_SetFilePointer       00059424     coredll:COREDLL.dll
 0005:00000428       __imp_QueryPerformanceCounter 00059428     coredll:COREDLL.dll
 0005:0000042c       __imp_GetCommandLineW      0005942c     coredll:COREDLL.dll
 0005:00000430       __imp_OpenStdConsole       00059430     coredll:COREDLL.dll
 0005:00000434       __imp_FlushFileBuffers     00059434     coredll:COREDLL.dll
 0005:00000438       __imp_WriteFile            00059438     coredll:COREDLL.dll
 0005:0000043c       __imp_GetProcessHeap       0005943c     coredll:COREDLL.dll
 0005:00000440       __imp_GetSystemTimeAsFileTime 00059440     coredll:COREDLL.dll
 0005:00000444       __imp_HeapReAlloc          00059444     coredll:COREDLL.dll
 0005:00000448       __imp_HeapFree             00059448     coredll:COREDLL.dll
 0005:0000044c       __imp_HeapAlloc            0005944c     coredll:COREDLL.dll
 0005:00000450       __imp_MultiByteToWideChar  00059450     coredll:COREDLL.dll
 0005:00000454       __imp_WideCharToMultiByte  00059454     coredll:COREDLL.dll
 0005:00000458       __imp_TlsGetValue          00059458     coredll:COREDLL.dll
 0005:0000045c       __imp_GetTimeZoneInformation 0005945c     coredll:COREDLL.dll
 0005:00000460       __imp_RaiseException       00059460     coredll:COREDLL.dll
 0005:00000464       __imp_InterlockedIncrement 00059464     coredll:COREDLL.dll
 0005:00000468       __imp_InterlockedDecrement 00059468     coredll:COREDLL.dll
 0005:0000046c       __imp_GetCPInfo            0005946c     coredll:COREDLL.dll
 0005:00000470       __imp_GetOEMCP             00059470     coredll:COREDLL.dll
 0005:00000474       __imp_GetACP               00059474     coredll:COREDLL.dll
 0005:00000478       __imp_IsValidCodePage      00059478     coredll:COREDLL.dll
 0005:0000047c       __imp_RtlCaptureNonVolatileContext 0005947c     coredll:COREDLL.dll
 0005:00000480       __imp_RtlUnwind            00059480     coredll:COREDLL.dll
 0005:00000484       __imp_RtlResumeFromContext 00059484     coredll:COREDLL.dll
 0005:00000488       \177COREDLL_NULL_THUNK_DATA 00059488     coredll:COREDLL.dll
 0005:000004fc       __imp_sendto               000594fc     winsock:WINSOCK.dll
 0005:00000500       __imp_recvfrom             00059500     winsock:WINSOCK.dll
 0005:00000504       __imp_htonl                00059504     winsock:WINSOCK.dll
 0005:00000508       __imp_inet_addr            00059508     winsock:WINSOCK.dll
 0005:0000050c       __imp_accept               0005950c     winsock:WINSOCK.dll
 0005:00000510       __imp_setsockopt           00059510     winsock:WINSOCK.dll
 0005:00000514       __imp_connect              00059514     winsock:WINSOCK.dll
 0005:00000518       __imp_shutdown             00059518     winsock:WINSOCK.dll
 0005:0000051c       __imp_closesocket          0005951c     winsock:WINSOCK.dll
 0005:00000520       __imp_ntohl                00059520     winsock:WINSOCK.dll
 0005:00000524       __imp_ntohs                00059524     winsock:WINSOCK.dll
 0005:00000528       __imp_bind                 00059528     winsock:WINSOCK.dll
 0005:0000052c       __imp_htons                0005952c     winsock:WINSOCK.dll
 0005:00000530       __imp_ioctlsocket          00059530     winsock:WINSOCK.dll
 0005:00000534       __imp_socket               00059534     winsock:WINSOCK.dll
 0005:00000538       __imp_recv                 00059538     winsock:WINSOCK.dll
 0005:0000053c       __imp_send                 0005953c     winsock:WINSOCK.dll
 0005:00000540       __imp_select               00059540     winsock:WINSOCK.dll
 0005:00000544       __imp_WSAStartup           00059544     winsock:WINSOCK.dll
 0005:00000548       __imp_WSACleanup           00059548     winsock:WINSOCK.dll
 0005:0000054c       __imp_listen               0005954c     winsock:WINSOCK.dll
 0005:00000550       \177WINSOCK_NULL_THUNK_DATA 00059550     winsock:WINSOCK.dll
 0005:0000058c       __imp_Process32Next        0005958c     toolhelp:toolhelp.dll
 0005:00000590       __imp_Process32First       00059590     toolhelp:toolhelp.dll
 0005:00000594       __imp_Thread32Next         00059594     toolhelp:toolhelp.dll
 0005:00000598       __imp_Thread32First        00059598     toolhelp:toolhelp.dll
 0005:0000059c       __imp_Heap32ListNext       0005959c     toolhelp:toolhelp.dll
 0005:000005a0       __imp_Heap32Next           000595a0     toolhelp:toolhelp.dll
 0005:000005a4       __imp_Heap32First          000595a4     toolhelp:toolhelp.dll
 0005:000005a8       __imp_Heap32ListFirst      000595a8     toolhelp:toolhelp.dll
 0005:000005ac       __imp_CloseToolhelp32Snapshot 000595ac     toolhelp:toolhelp.dll
 0005:000005b0       __imp_Module32Next         000595b0     toolhelp:toolhelp.dll
 0005:000005b4       __imp_Module32First        000595b4     toolhelp:toolhelp.dll
 0005:000005b8       __imp_CreateToolhelp32Snapshot 000595b8     toolhelp:toolhelp.dll
 0005:000005bc       \177toolhelp_NULL_THUNK_DATA 000595bc     toolhelp:toolhelp.dll

 entry point at        0001:000091e0

